(dp1
S'3110649716_c17e14670e.jpg'
p2
S'Three people are standing in front of a building .'
p3
sS'543007912_23fc735b99.jpg'
p4
S'The boy in the red jacket and grey cap is playing with a ball .'
p5
sS'2813033949_e19fa08805.jpg'
p6
S'A man in a brown shirt and white pants is holding a white Frisbee as another horse watches him .'
p7
sS'247704641_d883902277.jpg'
p8
S'Two dogs are walking along a snowy path .'
p9
sS'2398605966_1d0c9e6a20.jpg'
p10
S'Two dogs run through a snowy field .'
p11
sS'732468337_a37075225e.jpg'
p12
S'a young boy wearing a spiderman outfit laying on his head next to a dangerous animal .'
p13
sS'2522297487_57edf117f7.jpg'
p14
S'A man and a woman smile as they dance .'
p15
sS'2490768374_45d94fc658.jpg'
p16
S'A young girl wearing a pink hat stands on a grassy field .'
p17
sS'2101457132_69c950bc45.jpg'
p18
S'A black dog with a red collar plays in a rocky forest .'
p19
sS'3224227640_31865b3651.jpg'
p20
S'Two brown and white dogs in a field of flowers and grass .'
p21
sS'3498997518_c2b16f0a0e.jpg'
p22
S'The football player in red is challenging the player in red for the ball in midair .'
p23
sS'3310067561_b92017acab.jpg'
p24
S'A dog sits on a red blanket with a man in a dark hoodie .'
p25
sS'3554634863_5f6f616639.jpg'
p26
S'A crowd of people in knit hats standing near a van .'
p27
sS'3523471597_87e0bf3b21.jpg'
p28
S'A woman and a man in a red coat stand in front of a store of 3rd items .'
p29
sS'3538213870_9856a76b2a.jpg'
p30
S'A young girl is picking blossoms from a tree .'
p31
sS'2140182410_8e2a06fbda.jpg'
p32
S'Little boy sledding down a snow covered hill .'
p33
sS'2274992140_bb9e868bb8.jpg'
p34
S'Two little kids dance while playing on the ground .'
p35
sS'2654514044_a70a6e2c21.jpg'
p36
S'A dog runs through the grass .'
p37
sS'3157847991_463e006a28.jpg'
p38
S'Two men stand inside a restaurant at night .'
p39
sS'3584534971_b44f82c4b9.jpg'
p40
S'A biker , all covered in mud , riding a dirt bike .'
p41
sS'2885387575_9127ea10f1.jpg'
p42
S'A brown and black dog is playing with a soccer ball .'
p43
sS'200771289_31902164a7.jpg'
p44
S'There are two men and one woman .'
p45
sS'2167644298_100ca79f54.jpg'
p46
S'A man in a black coat and a hat smiles'
p47
sS'3295680663_af21ea648b.jpg'
p48
S'A man sits on a picnic table bench .'
p49
sS'1523984678_edd68464da.jpg'
p50
S'A small black and white dog is running on the grass .'
p51
sS'3116769029_f5a76f04ba.jpg'
p52
S'A child with blue eyes sitting amid flowers .'
p53
sS'506738508_327efdf9c3.jpg'
p54
S'A woman in a white dress is standing in a crowd holding a drink while other women and a woman look on .'
p55
sS'3602838407_bf13e49243.jpg'
p56
S'A black dog runs on the beach .'
p57
sS'3347666612_659e6e2207.jpg'
p58
S'A girl in a pink sweater is sitting on a trampoline made of sand .'
p59
sS'2078311270_f01c9eaf4c.jpg'
p60
S'A man with a camera and a dog on a mound of gravel .'
p61
sS'2112921744_92bf706805.jpg'
p62
S'A bird stands on a log near some trees .'
p63
sS'3474406285_01f3d24b71.jpg'
p64
S'a dog jumps over the bar .'
p65
sS'3556598205_86c180769d.jpg'
p66
S'Two men riding a dirt bike and one is falling off into a mud puddle .'
p67
sS'2480327661_fb69829f57.jpg'
p68
S'Two children are playing basketball .'
p69
sS'57422853_b5f6366081.jpg'
p70
S'A person sits on a snowbank watching a ski match .'
p71
sS'3074842262_62b1b2168c.jpg'
p72
S'The little boy is at the park holding a hula hoop on it .'
p73
sS'3115174046_9e96b9ce47.jpg'
p74
S'A skateboarder slides down a railing .'
p75
sS'2938747424_64e64784f0.jpg'
p76
S'A black and white dog is running through shallow water .'
p77
sS'2914206497_5e36ac6324.jpg'
p78
S'A silver car being driven in a parking lot , while crowds watch .'
p79
sS'2861932486_52befd8592.jpg'
p80
S'A man is sleeping on a bench with a tree bench in the middle of a brick building .'
p81
sS'3350786891_6d39b234e9.jpg'
p82
S'A man in yellow in a crowd .'
p83
sS'3388330419_85d72f7cda.jpg'
p84
S'A young boy plays a game of guitar .'
p85
sS'2248487950_c62d0c81a9.jpg'
p86
S'A man in a plaid shirt walks down the street .'
p87
sS'2666205903_8d287669e1.jpg'
p88
S'A group of young people are sitting outside on a stage with a few people sitting at a table'
p89
sS'2061354254_faa5bd294b.jpg'
p90
S'A man in a blue shirt and jeans plays a violin on a field .'
p91
sS'2718024196_3ff660416a.jpg'
p92
S'A young girl is jumping in the air while playing on the grass .'
p93
sS'2505988632_9541f15583.jpg'
p94
S'A little girl in a dark hat and red pants jumps in the air with a pole in her hand .'
p95
sS'2866254827_9a8f592017.jpg'
p96
S'A person is riding a red motorcycle around a track .'
p97
sS'3416091866_a96003d652.jpg'
p98
S'A man stands next to a bank of computer gambling machines .'
p99
sS'3694093650_547259731e.jpg'
p100
S'A group of teenagers in formal wear mingle and look at each other .'
p101
sS'909191414_1cf5d85821.jpg'
p102
S'A little boy and a little boy are playing with a toy toy as another child looks on .'
p103
sS'3523559027_a65619a34b.jpg'
p104
S'A man in a military uniform is standing in front of several large stuffed animals .'
p105
sS'3009644534_992e9ea2a7.jpg'
p106
S'The brown and white dog is running through the grass .'
p107
sS'2675685200_0913d84d9b.jpg'
p108
S'A boy jumps from one picnic table as another is standing in front of him .'
p109
sS'3592992234_6d3fe58a70.jpg'
p110
S'A boy wearing a hat is playing on the grass .'
p111
sS'3429956016_3c7e3096c2.jpg'
p112
S'A man is standing on top of a mountain above a red valley .'
p113
sS'2926595608_69b22be8d4.jpg'
p114
S'The basketball player in white is jumping up to score a point against the orange team .'
p115
sS'136886677_6026c622eb.jpg'
p116
S'Man and woman are sitting on a lake .'
p117
sS'422763475_0bc814dac6.jpg'
p118
S'A little boy is throwing snow on her shoulder .'
p119
sS'3458559770_12cf9f134e.jpg'
p120
S'Two cyclists lead the pack in a race while wearing long-spandex pants .'
p121
sS'2868575889_2c030aa8ae.jpg'
p122
S'A little boy jumps high over another team is flying on the ground .'
p123
sS'498444334_a680d318a1.jpg'
p124
S'Two girls are posing for a photograph in front of a group of people .'
p125
sS'2373234213_4ebe9c4ee5.jpg'
p126
S'A girl with brown hair is jumping up in the air on a playground .'
p127
sS'370614351_98b8a166b9.jpg'
p128
S'A young boy is playing a race and being pushed on the seat .'
p129
sS'3225310099_d8e419ba56.jpg'
p130
S'A man in an orange vest is shoveling water .'
p131
sS'1517721825_10176d0683.jpg'
p132
S'A brown dog and a black dog are running in the water .'
p133
sS'506367606_7cca2bba9b.jpg'
p134
S'A man is sitting on a bench and reading a book .'
p135
sS'3427233064_6af01bfc5c.jpg'
p136
S'The girl is wearing a dress and holding a telescope on the sidewalk .'
p137
sS'493621130_152bdd4e91.jpg'
p138
S'A brown dog on a leash runs through the water .'
p139
sS'2501595799_6316001e89.jpg'
p140
S'A small child is being splashed by water from an inflatable pool .'
p141
sS'2909875716_25c8652614.jpg'
p142
S'A young person stands in a grassy field and casting a long flag .'
p143
sS'3720366614_dfa8fe1088.jpg'
p144
S'A black and white dog is playing with a white ball .'
p145
sS'3256275785_9c3af57576.jpg'
p146
S'A man doing a trick on a skateboard'
p147
sS'439037721_cdf1fc7358.jpg'
p148
S'A man and a woman walking along the beach'
p149
sS'343218198_1ca90e0734.jpg'
p150
S'A dog running with a toy in its mouth .'
p151
sS'3332467180_d72f9b067d.jpg'
p152
S'A man is sitting on a bench inside a doorway .'
p153
sS'2938120171_970564e3d8.jpg'
p154
S'A dog sniffing a farm animal .'
p155
sS'2966552760_e65b22cd26.jpg'
p156
S'A baby with a blue shirt sits in a bathroom bed .'
p157
sS'2729655904_1dd01922fb.jpg'
p158
S'Several dogs are running on the beach .'
p159
sS'2343525685_3eba3b6686.jpg'
p160
S'The man in the red shirt is sitting on a rock with a pole in front of him .'
p161
sS'3139160252_75109e9e05.jpg'
p162
S'A young man in a white shirt is sitting on a white bench while a boy stands in the background .'
p163
sS'229862312_1a0ba19dab.jpg'
p164
S'Two dogs play'
p165
sS'3179336562_c3d0c0a3bd.jpg'
p166
S'A man performs a dirt bike stunt over the sand .'
p167
sS'535830521_aa971319fc.jpg'
p168
S'A man in a blue coat stands in front of a canvas sign .'
p169
sS'1096395242_fc69f0ae5a.jpg'
p170
S'A young girl is riding a toy horse in a bedroom seat while another woman watches .'
p171
sS'2497420371_74788d7ba1.jpg'
p172
S'Children play outside of a building trying to catch large signs .'
p173
sS'2479162876_a5ce3306af.jpg'
p174
S'A white , curly haired dog is wearing a harness and watching another black and brown dog in the water .'
p175
sS'3072172967_630e9c69d0.jpg'
p176
S'The basketball player in the white strip is trying to score with the ball from the opposing team who is running with the ball .'
p177
sS'293327462_20dee0de56.jpg'
p178
S'Two dogs play in the grass .'
p179
sS'2086513494_dbbcb583e7.jpg'
p180
S'A woman in a black coat and sunglasses smiles at the camera .'
p181
sS'2929506802_5432054d77.jpg'
p182
S'A small child is riding on a blue playground toy .'
p183
sS'1258913059_07c613f7ff.jpg'
p184
S'A person wearing a white hat and hat is standing in front of a red brick wall with no shoes .'
p185
sS'2862004252_53894bb28b.jpg'
p186
S'Brown dog running through a grassy field .'
p187
sS'424416723_19c56cb365.jpg'
p188
S'A dog is jumping over some leaves in the woods .'
p189
sS'3584930205_a3f58a4b7c.jpg'
p190
S'A boy in a red and white uniform is sliding down a ramp .'
p191
sS'747921928_48eb02aab2.jpg'
p192
S'The inflatable officer is reaching for a pail .'
p193
sS'3244747165_17028936e0.jpg'
p194
S'Two women wearing black .'
p195
sS'2600867924_cd502fc911.jpg'
p196
S'Four dogs run in the grass .'
p197
sS'241345844_69e1c22464.jpg'
p198
S'A crowd is watching a performance in a dark venue , and one man is taking a photo .'
p199
sS'3578841731_f775cab089.jpg'
p200
S'A white car and a yellow truck driving through the dirt .'
p201
sS'3024172109_a10198e1dd.jpg'
p202
S'A woman wearing yellow is riding a bicycle down the road .'
p203
sS'3106026005_473a7b1c8c.jpg'
p204
S'A man in a white shirt and jeans sitting by the screen while sitting on a subway train .'
p205
sS'3499720588_c32590108e.jpg'
p206
S'A woman in a yellow coat and blue hat is walking past a street .'
p207
sS'2228022180_9597b2a458.jpg'
p208
S'a woman sitting in a chair while a man is removing her garter belt'
p209
sS'189721896_1ffe76d89e.jpg'
p210
S'A man in a white helmet and blue helmet is rock climbing .'
p211
sS'791338571_7f38510bf7.jpg'
p212
S'A man walks with his dog in the desert .'
p213
sS'799486353_f665d7b0f0.jpg'
p214
S'A person with shoulder-length brown hair is sitting in a shallow pool with water up .'
p215
sS'3523874798_9ba2fa46e3.jpg'
p216
S'A young boy does tricks on a skateboard .'
p217
sS'3149919755_f9272b10b3.jpg'
p218
S'A black dog runs through sand on a beach .'
p219
sS'2148916767_644ea6a7fa.jpg'
p220
S'A dog runs through the snow .'
p221
sS'3506468593_7e41a6d9f1.jpg'
p222
S'A young girl is playing in a mud puddle .'
p223
sS'2739331794_4ae78f69a0.jpg'
p224
S'A man rides a motorcycle with his white and black bicycle at control .'
p225
sS'3003691049_f4363c2d5c.jpg'
p226
S'Two dogs are being led into a building on leashes .'
p227
sS'1509786421_f03158adfc.jpg'
p228
S'A man and a woman are smiling .'
p229
sS'2641770481_c98465ff35.jpg'
p230
S'A man in a brown cap is standing at the edge of a beach .'
p231
sS'280706862_14c30d734a.jpg'
p232
S'A black dog is in the water .'
p233
sS'166507476_9be5b9852a.jpg'
p234
S'A person is buried in a mud puddle .'
p235
sS'3027397797_4f1d305ced.jpg'
p236
S'A woman in a red shirt runs barefoot in the street .'
p237
sS'2460797929_66446c13db.jpg'
p238
S'A group of kids paddle a raft just fish in a body of water .'
p239
sS'353180303_6a24179c50.jpg'
p240
S'A man in a feather hat looking down .'
p241
sS'2715035273_8fc8b1291c.jpg'
p242
S'A man with an orange shirt walks down a busy city street .'
p243
sS'2854207034_1f00555703.jpg'
p244
S'A little boy is standing outdoors in a grassy field surrounded by trees .'
p245
sS'3139876823_859c7d7c23.jpg'
p246
S'A hiker is standing on a mountainside with summit on and mountains in the background .'
p247
sS'2354540393_a149722680.jpg'
p248
S'A boy is standing in a kitchen with his legs stretched out and a woman leans out .'
p249
sS'2663794355_e726ec7e05.jpg'
p250
S'A man and two boys are climbing on a rock in the water .'
p251
sS'2886411666_72d8b12ce4.jpg'
p252
S'The brown and white dog is running through the grass .'
p253
sS'2884420269_225d27f242.jpg'
p254
S'Two little kids are playing on a trampoline .'
p255
sS'880220939_0ef1c37f1f.jpg'
p256
S'A group of people walking down the street with one on the phone in a green hat .'
p257
sS'3507076266_8b17993fbb.jpg'
p258
S'There is a man in a brown shirt and white pants begins to are caught .'
p259
sS'2554081584_233bdf289a.jpg'
p260
S'The man is in a harness , wearing a hat , black shoes .'
p261
sS'339350939_6643bfb270.jpg'
p262
S'Two people are standing on a sand dune , which has their backs to the camera .'
p263
sS'3506560025_8d0f4f9ac4.jpg'
p264
S"A woman in a black and white dress is standing in front of a woman 's shoulder ."
p265
sS'2445283938_ff477c7952.jpg'
p266
S'Two girls sit at a table outdoors and give their order to the waiter .'
p267
sS'3609032038_005c789f64.jpg'
p268
S'A mountain biker , wearing a black helmet and shirt , in motion .'
p269
sS'3208074567_ac44aeb3f3.jpg'
p270
S'A young boy plays in the sprinklers , allowing the water to spray completely over his right arm .'
p271
sS'2317714088_bcd081f926.jpg'
p272
S'Two people sitting on the edge of a snow covered path .'
p273
sS'2869491449_1041485a6b.jpg'
p274
S'Two black dogs are fighting in a field .'
p275
sS'968081289_cdba83ce2e.jpg'
p276
S'A man in a brown shirt is on a boat with the sun behind her .'
p277
sS'2061144717_5b3a1864f0.jpg'
p278
S'A man is rollerblading down a handrail on some stairs .'
p279
sS'3504881781_6a842e043b.jpg'
p280
S'A man dressed as a safari hunter poses with a woman and his inflatable tiger toy .'
p281
sS'2358554995_54ed3baa83.jpg'
p282
S'A young boy wearing a blue shirt is climbing through a hole .'
p283
sS'2870875612_2cbb9e4a3c.jpg'
p284
S'A couple stands on a dock by the water hugging .'
p285
sS'2309860995_c2e2a0feeb.jpg'
p286
S'A girl in red and red poses with a woman in a black coat .'
p287
sS'3422458549_f3f3878dbf.jpg'
p288
S'A tennis player in mid-swing at a match .'
p289
sS'3462454965_a481809cea.jpg'
p290
S'A large brown dog and two black dogs playfully fight over a pond field by the woods .'
p291
sS'2521770311_3086ca90de.jpg'
p292
S'A little boy is holding a hammer shaped object in the face of an adult .'
p293
sS'2265096094_8cc34d669c.jpg'
p294
S'A brown dog is walking in a marsh .'
p295
sS'3108732084_565b423162.jpg'
p296
S'A snowboarder is jumping over a snow slope .'
p297
sS'3186412658_2ab2ebd397.jpg'
p298
S'A group of young men in colorful uniforms playing with a white ball .'
p299
sS'2876993733_cb26107d18.jpg'
p300
S'A group of people stand on a balcony .'
p301
sS'1322323208_c7ecb742c6.jpg'
p302
S'A man and a dog are standing on a beach with buildings in the distance .'
p303
sS'3119875880_22f9129a1c.jpg'
p304
S'A man climbs a rock wall .'
p305
sS'512101751_05a6d93e19.jpg'
p306
S'A white dog jumps to catch a tennis ball in its mouth .'
p307
sS'3201427741_3033f5b625.jpg'
p308
S'A little boy dressed as a pirate has long hair .'
p309
sS'2922973230_5a769ef92a.jpg'
p310
S'A man holding a dog walks by a small woman standing in a grassy area .'
p311
sS'3450874870_c4dcf58fb3.jpg'
p312
S'A person skis down a snowy hill .'
p313
sS'3259002340_707ce96858.jpg'
p314
S'A dog in a harness chasing a green ball .'
p315
sS'3596131692_91b8a05606.jpg'
p316
S'Three boys are playing football .'
p317
sS'2844018783_524b08e5aa.jpg'
p318
S'Two women , one in white , one in black , are sitting on a bench .'
p319
sS'1427391496_ea512cbe7f.jpg'
p320
S'A little boy is standing on a fake picnic table with the fire in the foreground .'
p321
sS'2311690895_0d6efe11c8.jpg'
p322
S'The dog is eating pasta .'
p323
sS'3685328542_ab999b83bb.jpg'
p324
S'The man is wearing a blue shirt and jumping off of a yellow swing .'
p325
sS'3585598356_8ce815bbb9.jpg'
p326
S'A woman and a young girl in a pink dress look over their shadows in the park .'
p327
sS'115684808_cb01227802.jpg'
p328
S'Two people are skiing in the snow in a wooded area .'
p329
sS'2300168895_a9b83e16fc.jpg'
p330
S'A brown dog is walking on the grass carrying a stick in its mouth .'
p331
sS'1174525839_7c1e6cfa86.jpg'
p332
S'a little boy is running on the beach with a red bucket in his hand .'
p333
sS'2128119486_4407061c40.jpg'
p334
S'A young boy smiles as he is chewing on a blue blanket .'
p335
sS'2944836001_b38b516286.jpg'
p336
S'One man helps another man start a back flip'
p337
sS'2238759450_6475641bdb.jpg'
p338
S'A man in a green shirt and khaki pants sits standing on one foot and holding a pole near a body of water .'
p339
sS'757332692_6866ae545c.jpg'
p340
S'Two dogs lying on their backs on the purple bed .'
p341
sS'2310126952_7dc86d88f6.jpg'
p342
S'A dog sled team and their driver .'
p343
sS'3044500219_778f9f2b71.jpg'
p344
S'There is a woman in a costume standing in a crowd .'
p345
sS'497791037_93499238d8.jpg'
p346
S'A boy is jumping a hurdle and about to touch ground .'
p347
sS'3263497678_8bb688ca01.jpg'
p348
S'A man in a white uniform is trying to score to the opposing player .'
p349
sS'3216926094_bc975e84b9.jpg'
p350
S'A dog with its tongue out is trying to catch a pink ball .'
p351
sS'2559503010_84f20b3bc9.jpg'
p352
S'A person with an umbrella is standing in the street at a crosswalk .'
p353
sS'3470951932_27ed74eb0b.jpg'
p354
S'A pitcher and catcher celebrate striking another baseball player out in a pro game .'
p355
sS'2192131110_8a40e7c028.jpg'
p356
S'A man wearing a grey coat does a trick high on his skateboard .'
p357
sS'2603792708_18a97bac97.jpg'
p358
S'Two young men stand on the shore of a lake .'
p359
sS'1220401002_3f44b1f3f7.jpg'
p360
S'A girl and boy in red dresses dance on grassy road .'
p361
sS'2913965136_2d00136697.jpg'
p362
S'A young boy kicks a soccer ball in a field .'
p363
sS'1836335410_de8313a64e.jpg'
p364
S'A man wearing a business suit holds up a drink as the other laughs .'
p365
sS'1584315962_5b0b45d02d.jpg'
p366
S'Two people are sitting on a snowy mountain .'
p367
sS'2419221084_01a14176b4.jpg'
p368
S'Two dogs playing in the grass .'
p369
sS'293879742_5fe0ffd894.jpg'
p370
S'A brown dog is leaping into the air to catch a Frisbee in front of a white building .'
p371
sS'1456393634_74022d9056.jpg'
p372
S'A small girl running on the beach .'
p373
sS'1536774449_e16b1b6382.jpg'
p374
S'A large group of people are watching something , screaming , and taking pictures .'
p375
sS'396360611_941e5849a3.jpg'
p376
S'Three people are in the water and watching the sun .'
p377
sS'3595643050_d312e4b652.jpg'
p378
S'A dog stands on a bench while a dog jumps up .'
p379
sS'2892995070_39f3c9a56e.jpg'
p380
S'A black dog is chasing a black and white dog across the sand .'
p381
sS'3079787482_0757e9d167.jpg'
p382
S'A little girl is dressed in a colorful outfit with an innertube .'
p383
sS'3435035138_af32890a4c.jpg'
p384
S'A dog has his mouth wide open , ready to catch a toy in the air .'
p385
sS'3593392955_a4125087f6.jpg'
p386
S'A black and a brown dog are running .'
p387
sS'2271755053_e1b1ec8442.jpg'
p388
S'A young boy playing basketball in a gym , wearing a uniform .'
p389
sS'113678030_87a6a6e42e.jpg'
p390
S'A group of people stand in the snow in a mountain .'
p391
sS'3217266166_4e0091860b.jpg'
p392
S'A person in a beige shirt is driving on a runway in front of a crowd .'
p393
sS'2693425189_47740c22ed.jpg'
p394
S'a young girl jumping on a trampoline that is on a slide .'
p395
sS'3192069971_83c5a90b4c.jpg'
p396
S'A person riding on a dirt bike while someone takes a picture .'
p397
sS'3214573346_d3a57f0328.jpg'
p398
S'The white dog is on the ground in the snow .'
p399
sS'2599444370_9e40103027.jpg'
p400
S'A black dog swims in a large pool .'
p401
sS'758921886_55a351dd67.jpg'
p402
S'Two girls in pink dresses laugh and smile .'
p403
sS'3715469645_6d1dc019b3.jpg'
p404
S'Two women , one in white , one in black , are talking to a woman that has his arm up .'
p405
sS'3457045393_2bbbb4e941.jpg'
p406
S'Two children walk along a building and smiling .'
p407
sS'2712787899_d85048eb6a.jpg'
p408
S'A child in a red shirt and green pants is posing on a cement platform and around the road .'
p409
sS'3323988406_e3c8fce690.jpg'
p410
S'Man on skateboard , doing a trick .'
p411
sS'2666179615_f05a9d8331.jpg'
p412
S'A woman with a purple Mohawk and red hat smiles at the camera .'
p413
sS'2595186208_9b16fa0ee3.jpg'
p414
S'Two dogs stand at the edge of a river .'
p415
sS'3677318686_b018862bb7.jpg'
p416
S'A child chases a soccer ball .'
p417
sS'2757803246_8aa3499d26.jpg'
p418
S'A boy and a boy play guitar with one leg .'
p419
sS'1282392036_5a0328eb86.jpg'
p420
S'A group of people riding brown horses .'
p421
sS'430173345_86388d8822.jpg'
p422
S'A brown dog in a field .'
p423
sS'1248940539_46d33ed487.jpg'
p424
S'Two little kids are playing on the shore next to a body of water .'
p425
sS'2333288869_8c01e4c859.jpg'
p426
S'Two men are sit on a raft in the ocean .'
p427
sS'3262075846_5695021d84.jpg'
p428
S'A group of men playing rugby .'
p429
sS'400851260_5911898657.jpg'
p430
S'Two people standing on a snow covered mountain .'
p431
sS'2374652725_32f90fa15c.jpg'
p432
S'Two dogs play in the snow'
p433
sS'3328646934_5cca4cebce.jpg'
p434
S'a young child wearing a red coat walking through the snow'
p435
sS'3613955682_3860e116cf.jpg'
p436
S'The rugby players in red are huddled together and the player in red is behind him .'
p437
sS'300577375_26cc2773a1.jpg'
p438
S'A man lies on a street with his head and shoulders under a parked car that is jacked up .'
p439
sS'2949982320_c704b31626.jpg'
p440
S'A person on skis on a rail .'
p441
sS'2610447973_89227ff978.jpg'
p442
S'People are riding in a race at a farmers market .'
p443
sS'2340206885_58754a799a.jpg'
p444
S'Three dogs playing in the snow .'
p445
sS'223299142_521aedf9e7.jpg'
p446
S'A person standing on a cliff high in the mountains .'
p447
sS'3325497914_f9014d615b.jpg'
p448
S'A girl is jumping on a trampoline that is slinging her out in the air , while the one in the red t-shirt looks on .'
p449
sS'2447284966_d6bbdb4b6e.jpg'
p450
S'A boy in a blue shirt is holding a blue umbrella into a large plastic wagon .'
p451
sS'820169182_f5e78d7d19.jpg'
p452
S'Two children are playing in a foam playpen .'
p453
sS'3549583146_3e8bb2f7e9.jpg'
p454
S'A boy wearing a helmet is riding his skateboard in the street .'
p455
sS'2358561039_e215a8d6cd.jpg'
p456
S'Two dogs pulling a sled .'
p457
sS'452419961_6d42ab7000.jpg'
p458
S'A young child is sitting at a table with a laptop and earphones .'
p459
sS'2396691909_6b8c2f7c44.jpg'
p460
S'A woman wearing a blue sweater is looking down next to a woman in black .'
p461
sS'3019842612_8501c1791e.jpg'
p462
S'A man jumps over a brick wall in front of a white building .'
p463
sS'3708177171_529bb4ff1d.jpg'
p464
S'A skateboarder is jumping over an obstacle in front of a white house .'
p465
sS'2797149878_bb8e27ecf9.jpg'
p466
S'A child is jumping into the air .'
p467
sS'2647049174_0fb47cee2e.jpg'
p468
S'A small child is sitting on blue carpet .'
p469
sS'3503689049_63212220be.jpg'
p470
S'A man in a blue shirt , tie , and blue jacket looks at the camera .'
p471
sS'3016606751_0e8be20abd.jpg'
p472
S'A man sits on a rock cliff with trees in the background .'
p473
sS'2782433864_5a0c311d87.jpg'
p474
S'Two dogs are running around in the snow .'
p475
sS'505929313_7668f021ab.jpg'
p476
S'A wet dog in a blue collar is in the water .'
p477
sS'3393926562_66cc01b001.jpg'
p478
S'A man in a black jacket and jeans stands in front of a brick wall .'
p479
sS'468102269_135938e209.jpg'
p480
S'A man and two girls sit on a boat in the sun .'
p481
sS'541063517_35044c554a.jpg'
p482
S'A man in a white shirt and khaki pants is standing on a rock and looking at something .'
p483
sS'509123893_07b8ea82a9.jpg'
p484
S'two small children posing for a picture with a rainbow painted on it'
p485
sS'2194286203_5dc620006a.jpg'
p486
S'A little girl in a rain puddle .'
p487
sS'745880539_cd3f948837.jpg'
p488
S'a brown and white dog jumping in the air to catch a Frisbee .'
p489
sS'2621415349_ef1a7e73be.jpg'
p490
S'A man with a Mohawk and beard , with his hand on his chin looking off into the distance .'
p491
sS'2216695423_1362cb25f3.jpg'
p492
S'Two dogs standing on the grass .'
p493
sS'2393264648_a280744f97.jpg'
p494
S'A girl in a pink shirt is holding a rainbow afghan .'
p495
sS'3239021459_a6b71bb400.jpg'
p496
S'Two children sitting on disks in the snow .'
p497
sS'1998457059_c9ac9a1e1a.jpg'
p498
S'A kayaker is battling waves in a purple boat while wearing rain gear .'
p499
sS'2498897831_0bbb5d5b51.jpg'
p500
S'Two girls in pink dresses laugh and play with a green toy .'
p501
sS'3108197858_441ff38565.jpg'
p502
S'A group of children stand against a building and smile .'
p503
sS'1329832826_432538d331.jpg'
p504
S'A security man with brown hair is walking through a busy city street .'
p505
sS'3185371756_ff4e9fa8a6.jpg'
p506
S'The boy is wearing a blue jacket and black pants , and is climbing a pole .'
p507
sS'70995350_75d0698839.jpg'
p508
S'A white swan is gliding through the water .'
p509
sS'2511019188_ca71775f2d.jpg'
p510
S'A brown dog is running alongside a black dog in a field .'
p511
sS'2206960564_325ed0c7ae.jpg'
p512
S'A dog is running with a tennis ball in its nose .'
p513
sS'375392855_54d46ed5c8.jpg'
p514
S'A person rides a bike in the woods .'
p515
sS'2822290399_97c809d43b.jpg'
p516
S'A dog runs through a field carrying a large ball in its mouth .'
p517
sS'3030294889_78b2ccbe51.jpg'
p518
S'A group of people are watching a pelican move playing .'
p519
sS'249394748_2e4acfbbb5.jpg'
p520
S'two dogs running in the grass'
p521
sS'3627011534_485f667b10.jpg'
p522
S'A woman in a white shirt blowing bubbles .'
p523
sS'1572532018_64c030c974.jpg'
p524
S'A group of young people sit in the water and watching a dog .'
p525
sS'2646046871_c3a5dbb971.jpg'
p526
S'The two boys are playing with fake swords .'
p527
sS'2934359101_cdf57442dc.jpg'
p528
S'A man wearing pants plays a guitar while onstage .'
p529
sS'3582742297_1daa29968e.jpg'
p530
S'Two dogs are playing around in the dirt .'
p531
sS'2662845514_8620aaee96.jpg'
p532
S'A boy is hanging off a boat that is that is in the air .'
p533
sS'537559285_29be110134.jpg'
p534
S'A dog and person in midair with a Frisbee in its mouth .'
p535
sS'929679367_ff8c7df2ee.jpg'
p536
S'A brown and white dog is standing on its hind legs reaching for a ball .'
p537
sS'2991575785_bd4868e215.jpg'
p538
S'The man is wearing a blue hat and standing with a long umbrella .'
p539
sS'2054869561_ff723e9eab.jpg'
p540
S'The black and white dog is running with a colorful ball near him .'
p541
sS'2533424347_cf2f84872b.jpg'
p542
S'A yellow car is driving away from the water .'
p543
sS'260828892_7925d27865.jpg'
p544
S'The little boy wades at the water .'
p545
sS'2436081047_bca044c1d3.jpg'
p546
S'The boy is doing a stunt on the railing and the sky and the other is jumping off the side of it .'
p547
sS'1298295313_db1f4c6522.jpg'
p548
S'A young boy jumping into a lake .'
p549
sS'2884301336_dc8e974431.jpg'
p550
S'A black dog splashing through water on a wooden floor .'
p551
sS'191003285_edd8d0cf58.jpg'
p552
S'A man and woman sit across from each other at a restaurant table .'
p553
sS'1917265421_aeccf1ca38.jpg'
p554
S'A group of people riding horses in a grassy field .'
p555
sS'1467533293_a2656cc000.jpg'
p556
S'A young boy on a ride at an amusement park .'
p557
sS'354642192_3b7666a2dd.jpg'
p558
S'A man is standing in the ocean and holding on tho the rock .'
p559
sS'464251704_b0f0c4c87a.jpg'
p560
S'A young child is playing in the hay , with an orange object in his mouth .'
p561
sS'522063319_33827f1627.jpg'
p562
S'Two girls are smiling together .'
p563
sS'1561658940_a947f2446a.jpg'
p564
S'A small girl in a blue and pink outfit is sliding down a tube slide .'
p565
sS'3485425825_c2f3446e73.jpg'
p566
S'A woman and a boy are walking down the sidewalk .'
p567
sS'2102360862_264452db8e.jpg'
p568
S'A boy stands next to a blue wheelbarrow on a sandy hill next to a lake .'
p569
sS'1402640441_81978e32a9.jpg'
p570
S'A little boy in red jumps into a lake .'
p571
sS'751109943_2a7f8e117f.jpg'
p572
S'A young girl in a blue dress playing a treat .'
p573
sS'1332722096_1e3de8ae70.jpg'
p574
S'a young girl wearing a black shirt and pink boots walking down the street'
p575
sS'3745451546_fc8ec70cbd.jpg'
p576
S'A person skiing down a snowy mountainside .'
p577
sS'1174629344_a2e1a2bdbf.jpg'
p578
S'A woman walks with another man in an outdoor market .'
p579
sS'2676764246_c58205a365.jpg'
p580
S'Several dogs are running around a camel .'
p581
sS'2844641033_dab3715a99.jpg'
p582
S'A young boy wearing a red shirt is sitting in the sand .'
p583
sS'3270691950_88583c3524.jpg'
p584
S'A man is jumping into the air into the water .'
p585
sS'3610683688_bbe6d725ed.jpg'
p586
S'A black dog splashes through the water .'
p587
sS'2496370758_a3fbc49837.jpg'
p588
S'A dog is running through a field with its tongue hanging out .'
p589
sS'2502905671_c6039804ab.jpg'
p590
S'A man gets out on a beach with a big black dog .'
p591
sS'401079494_562454c4d6.jpg'
p592
S'A black dog plays with a smaller grey dog on the grass .'
p593
sS'219070971_ae43410b9e.jpg'
p594
S'Man riding a bicycle with the number five thousand six hundred thirty three on the handlebars he has on a black helmet .'
p595
sS'3424424006_98f9d1921c.jpg'
p596
S'a man jumps up on the top of a metal bar .'
p597
sS'2461616306_3ee7ac1b4b.jpg'
p598
S'A woman is diving into a swimming pool .'
p599
sS'3655155990_b0e201dd3c.jpg'
p600
S'A tan dog is running through the water with a long stick in its mouth .'
p601
sS'3439382048_d2e23b2b4c.jpg'
p602
S'Two men in a wrestling match .'
p603
sS'3540416981_4e74f08cbb.jpg'
p604
S'A white and brown dog runs on the grass .'
p605
sS'979383193_0a542a059d.jpg'
p606
S'A group of kids are at a birthday party .'
p607
sS'3145967309_b33abe4d84.jpg'
p608
S'a group of young people posing for a picture'
p609
sS'3631986552_944ea208fc.jpg'
p610
S'A man in a black wetsuit is surfing in the ocean .'
p611
sS'3741462565_cc35966b7a.jpg'
p612
S'A young girl in a blue shirt presses against the glass for a better look at desserts .'
p613
sS'624742559_ff467d8ebc.jpg'
p614
S'A boy in a white shirt is playing by a water fountain .'
p615
sS'2229179070_dc8ea8582e.jpg'
p616
S'A man and two boys are playing with a white and black ball .'
p617
sS'2421446839_fe7d46c177.jpg'
p618
S'A brown dog is pulling off the car as a black dog watches .'
p619
sS'2683963310_20dcd5e566.jpg'
p620
S'Two children hug and smile .'
p621
sS'3243588540_b418ac7eda.jpg'
p622
S'A man in a black shirt and a woman in a black shirt are painting .'
p623
sS'468608014_09fd20eb9b.jpg'
p624
S'A dog with a toy in its mouth .'
p625
sS'300550441_f44ec3701a.jpg'
p626
S'A man and a woman walk in a field looking at the camera .'
p627
sS'3568197730_a071d7595b.jpg'
p628
S'A boy wearing a blue t-shirt is jumping up in the air on a city street .'
p629
sS'3286822339_5535af6b93.jpg'
p630
S'A group of people are standing in front of some stores .'
p631
sS'3125309108_1011486589.jpg'
p632
S'A group of rugby players in action on a green field .'
p633
sS'2285570521_05015cbf4b.jpg'
p634
S'A person skiing downhill in the snow .'
p635
sS'509778093_21236bb64d.jpg'
p636
S'A brown and white dog is playing with a ball on the grass .'
p637
sS'3411393875_a9ff73c67a.jpg'
p638
S'A young boy eats chips while another little boy follows .'
p639
sS'2415803492_56a673dc25.jpg'
p640
S'A man is doing a skateboard trick on a skateboard that is located with a large balcony .'
p641
sS'2472980433_210ec62874.jpg'
p642
S'A person performs a dirt bike stunt .'
p643
sS'3421789737_f625dd17ed.jpg'
p644
S'A boy wearing a red shirt is jumping off the top of a slide .'
p645
sS'3605061440_1d08c80a57.jpg'
p646
S'A group of children playing on a chain link fence .'
p647
sS'1237985362_dbafc59280.jpg'
p648
S'A girl in a purple shirt is blowing bubbles with a group of young girls inside .'
p649
sS'488356951_b3b77ad832.jpg'
p650
S'A man in a black t-shirt looking down while a woman in a blue jacket looks on .'
p651
sS'2443380641_7b38d18f5b.jpg'
p652
S'The boy in the blue shirt has a peace sign in her hand .'
p653
sS'2541104331_a2d65cfa54.jpg'
p654
S'A black dog playing in the water .'
p655
sS'2985679744_75a7102aab.jpg'
p656
S"A woman is sitting on a man 's lap on a public transportation system ."
p657
sS'241346508_0b3907a95b.jpg'
p658
S'Men playing football in front of large crowd in stadium'
p659
sS'2704934519_457dc38986.jpg'
p660
S'A small child is walking on a beach with the sun on the horizon .'
p661
sS'925491651_57df3a5b36.jpg'
p662
S'A dog swimming with a stick in its mouth .'
p663
sS'1772859261_236c09b861.jpg'
p664
S'A black dog and a brown and white dog are playing with a stick in the water .'
p665
sS'3295391572_cbfde03a10.jpg'
p666
S'A man and a woman are sitting down and eating .'
p667
sS'311146855_0b65fdb169.jpg'
p668
S'A man holding a flag stands next to a woman wearing orange and white .'
p669
sS'3432550415_e7b77232de.jpg'
p670
S'A boy jumps off a bench in the park .'
p671
sS'3255482333_5bcee79f7e.jpg'
p672
S'A man skis on a snowy mountain .'
p673
sS'86412576_c53392ef80.jpg'
p674
S'A man on a motorcycle is racing at a track .'
p675
sS'2306674172_dc07c7f847.jpg'
p676
S'A boy skateboards down the railing of some graffiti stairs'
p677
sS'3502343542_f9b46688e5.jpg'
p678
S'A man in a red shirt climbs a sheer cliff face over the tree tops .'
p679
sS'270724499_107481c88f.jpg'
p680
S'A dog runs through a field with a yellow toy in its mouth .'
p681
sS'3692892751_f6574e2700.jpg'
p682
S'A group of boys playing street soccer .'
p683
sS'3135504530_0f4130d8f8.jpg'
p684
S'Two girls stand in front of a Christmas tree , with their arms around each other .'
p685
sS'2553550034_5901aa9d6c.jpg'
p686
S'A man in gray shorts and a baseball cap stands on a rock near a river .'
p687
sS'3259666643_ae49524c81.jpg'
p688
S'The basketball player in the blue uniform is guarding the player in the orange uniform , who has the ball .'
p689
sS'3017521547_f5ef8848e3.jpg'
p690
S'A runner is striking the ball with a bat , while others watch .'
p691
sS'670609997_5c7fdb3f0b.jpg'
p692
S'A black and white dog is running inside a grassy backyard that has a blue ball in its mouth .'
p693
sS'2160266952_a2ab39191b.jpg'
p694
S'A girl and boy play on the floor of a house .'
p695
sS'3449114979_6cdc3e8da8.jpg'
p696
S'Two boys are sitting under a fence and smile .'
p697
sS'2991994415_504d1c0a03.jpg'
p698
S'A young woman with a pink mask on her face smiles .'
p699
sS'3192266178_f9bf5d3dba.jpg'
p700
S'The man is walking a white dog with his arms out to the dog that is jumping a rock face .'
p701
sS'3442242092_e579538d82.jpg'
p702
S'a girl in yellow dress is standing with her eyes closed in a busy park .'
p703
sS'3467219837_7d62213dec.jpg'
p704
S'Two girls walk along a rocky path next to a scenic view of trees .'
p705
sS'3244470342_c08f6bb17e.jpg'
p706
S'A man is standing on top of a rock formation with his arms out .'
p707
sS'540721368_12ac732c6c.jpg'
p708
S'A woman with a blue shirt and red beads sitting on a couch'
p709
sS'1082379191_ec1e53f996.jpg'
p710
S'The man and woman are standing next to the ocean and watching the sunset .'
p711
sS'3223055565_68973f5d20.jpg'
p712
S'Two children are making their way through a snowy forest .'
p713
sS'3234401637_84e0d14414.jpg'
p714
S'Two women are standing by a fountain in front of a large stone structure .'
p715
sS'2308978137_bfe776d541.jpg'
p716
S'a crowd of people are gathered in the street waving Irish flags .'
p717
sS'2623930900_b9df917b82.jpg'
p718
S'A man is standing in front of a woman and she smiles .'
p719
sS'384577800_fc325af410.jpg'
p720
S'A brown dog is running through the snow .'
p721
sS'3658427967_6e2e57458d.jpg'
p722
S'A young man wearing a black tankini life jacket plays in the water .'
p723
sS'3767841911_6678052eb6.jpg'
p724
S'A girl wearing a white tank top and blue jeans is standing on the grass .'
p725
sS'138718600_f430ebca17.jpg'
p726
S'A man rides a bike on a path beside the road .'
p727
sS'1339596997_8ac29c1841.jpg'
p728
S'A group of girls are riding on a roller coaster .'
p729
sS'2575647360_f5de38c751.jpg'
p730
S'A group of children are in a kitchen .'
p731
sS'2225231022_1632d0a5aa.jpg'
p732
S'A man and a woman in front of a brown fence on a hilly street .'
p733
sS'2194494220_bb2178832c.jpg'
p734
S'a small brown dog holding a Frisbee in its mouth .'
p735
sS'2922222717_12195af92d.jpg'
p736
S'A black cat and a black and white dog laying on a blanket on a blanket .'
p737
sS'448658518_eec0b648a6.jpg'
p738
S'A man in a baseball cap practices jumping from a swing'
p739
sS'532457586_bddfc5251d.jpg'
p740
S'A young man is sitting on a bench with a bus in the background .'
p741
sS'3572267708_9d8a81d4a4.jpg'
p742
S'A woman is cooking food in a glass case .'
p743
sS'2544182005_3aa1332bf9.jpg'
p744
S'The boy is doing a stunt through the air , on a skateboard .'
p745
sS'2526585002_10987a63f3.jpg'
p746
S'A group of people are riding in the air , next to a statue .'
p747
sS'3085667767_66041b202e.jpg'
p748
S'A surfer is riding a wave in a large body of water .'
p749
sS'143688283_a96ded20f1.jpg'
p750
S'A man in short shorts is posing on a large rock .'
p751
sS'3716244806_97d5a1fb61.jpg'
p752
S'A group of people climbing a rock while one man belays'
p753
sS'1387785218_cee67735f5.jpg'
p754
S'A little girl in pink dances with her hands on her hips .'
p755
sS'2124040721_bffc0a091a.jpg'
p756
S'A man in a black shirt and white hat with his head bowed'
p757
sS'3064383768_f6838f57da.jpg'
p758
S'A man in a wetsuit is surfing on blue water .'
p759
sS'398662202_97e5819b79.jpg'
p760
S'Little boy with pink tights dancing out of water in a brown room .'
p761
sS'3452127051_fa54a902b3.jpg'
p762
S'A black dog is running out of an obstacle course .'
p763
sS'2484190118_e89363c465.jpg'
p764
S'A young boy is jumping in the air in front of a brick wall .'
p765
sS'247637795_fdf26a03cf.jpg'
p766
S'A closeup of a girl playing with a volleyball .'
p767
sS'2999730677_0cfa1c146e.jpg'
p768
S'The white dog is trying to bite a large stick .'
p769
sS'3333921867_6cc7d7c73d.jpg'
p770
S'Two dogs are running on an open field covered in yellow grass .'
p771
sS'2657484284_daa07a3a1b.jpg'
p772
S'Two people are rowing a canoe through the water .'
p773
sS'3044746136_8b89da5f40.jpg'
p774
S'A crowd of people are sitting down inside a glass building with a coffee walking in the background .'
p775
sS'3245070961_8977fdd548.jpg'
p776
S'A little girl in a red coat is running .'
p777
sS'2346401538_f5e8da66fc.jpg'
p778
S'A woman in a black coat and green backpack walks next to a man wearing a blue cap .'
p779
sS'500446858_125702b296.jpg'
p780
S'A dog chases a Frisbee on the grass .'
p781
sS'2839038702_e168128665.jpg'
p782
S'A hiker is standing on a hill with a mountain in the foreground and mountains behind him .'
p783
sS'1808370027_2088394eb4.jpg'
p784
S'A dog with a stick in his mouth runs through the water with a stick in its mouth .'
p785
sS'539751252_2bd88c456b.jpg'
p786
S'A young boy slides down a water slide into a pool .'
p787
sS'1287475186_2dee85f1a5.jpg'
p788
S'A boy swims in a pool .'
p789
sS'3436063693_15c8d377a2.jpg'
p790
S'A dog is running to catch a tennis ball .'
p791
sS'307327914_f98f576adb.jpg'
p792
S'Two men have fun drinking'
p793
sS'1472230829_803818a383.jpg'
p794
S'People are tossed around in a blue raft in a foamy river .'
p795
sS'3541474181_489f19fae7.jpg'
p796
S'A snowboarder is jumping over a snowbank in a snow park'
p797
sS'2453971388_76616b6a82.jpg'
p798
S'A girl is sitting on a slip and slide that has his hands up in the air .'
p799
sS'2239938351_43c73c887c.jpg'
p800
S'Two dogs play and fight over a blue ball .'
p801
sS'3167365436_c379bda282.jpg'
p802
S'A man and a woman laugh together by a white door .'
p803
sS'2120411340_104eb610b1.jpg'
p804
S'The white dog is jumping in the air and shakes its tail .'
p805
sS'2950905787_f2017d3e49.jpg'
p806
S'A person stands in the snow at the bottom of a snow covered mountain .'
p807
sS'460935487_75b2da7854.jpg'
p808
S'A dog stands on his hind legs for a lady in purple .'
p809
sS'3396157719_6807d52a81.jpg'
p810
S'A brown and white dog stands on the sand in front of some other people .'
p811
sS'1311388430_4ab0cd1a1f.jpg'
p812
S'A man is on a cliff high in the mountains .'
p813
sS'3275704430_a75828048f.jpg'
p814
S'A woman in gray is smoking a cigarette .'
p815
sS'3222041930_f642f49d28.jpg'
p816
S'A man with a white mustache stands on a balcony looking at the road below .'
p817
sS'1962729184_6996e128e7.jpg'
p818
S'A group of policemen are standing outside of a building .'
p819
sS'2854959952_3991a385ab.jpg'
p820
S'A small dog jumps in the air to catch a flying disc .'
p821
sS'3688858505_e8afd1475d.jpg'
p822
S'There is a woman in a blue shirt and a young girl in a white shirt and jeans are posing for a picture .'
p823
sS'3028969146_26929ae0e8.jpg'
p824
S'A white dog with brown ears leaps at a white dog and pink duck'
p825
sS'2542662402_d781dd7f7c.jpg'
p826
S'A woman throws a Frisbee for his dog to chase .'
p827
sS'542179694_e170e9e465.jpg'
p828
S'Children walk on the street beside a building .'
p829
sS'1499581619_a5f65a882c.jpg'
p830
S'a man in white holding a camera stands next to a man in a green shirt .'
p831
sS'3187395715_f2940c2b72.jpg'
p832
S'A woman sits on a wall next to a large conical fountain .'
p833
sS'3670907052_c827593564.jpg'
p834
S'A man is performing a midair stunt on a dirt bike while people in the background watch .'
p835
sS'2077079696_03380d218b.jpg'
p836
S'A rock climber hangs from a ledge while others look on .'
p837
sS'1224851143_33bcdd299c.jpg'
p838
S'A little girl is sitting at a table with a multicolor hood on her face .'
p839
sS'2100816230_ff866fb352.jpg'
p840
S'A skateboarder is jumping off a wall .'
p841
sS'3150742439_b8a352e1e0.jpg'
p842
S'A man and woman sit on a sidewalk together .'
p843
sS'3348385580_10b53391f9.jpg'
p844
S'This rider is doing a trick on a ramp .'
p845
sS'154871781_ae77696b77.jpg'
p846
S'Two kids playing soccer in a field .'
p847
sS'3228069008_edb2961fc4.jpg'
p848
S'A brown dog in a blue collar is laying on a blue leash .'
p849
sS'3155987659_b9ea318dd3.jpg'
p850
S'A dog chases a ball in the grass .'
p851
sS'997722733_0cb5439472.jpg'
p852
S'A man is climbing a cliff high in the air .'
p853
sS'3437147889_4cf26dd525.jpg'
p854
S'A motorcycle racer is riding a black motorcycle .'
p855
sS'3601843201_4809e66909.jpg'
p856
S'A man on a motorcycle going around a corner .'
p857
sS'2944362789_aebbc22db4.jpg'
p858
S'A person doing a back flip off a table off the side of a wooden ramp .'
p859
sS'215214751_e913b6ff09.jpg'
p860
S'A person rides a boat through the water .'
p861
sS'2073964624_52da3a0fc4.jpg'
p862
S'A cyclist is riding a bicycle on a racetrack while many other people watch .'
p863
sS'3361990489_92244a58ef.jpg'
p864
S'Man holding boy upside down in his arms standing on rocks .'
p865
sS'2473689180_e9d8fd656a.jpg'
p866
S'A speed boat jumps over waves in the water .'
p867
sS'3430607596_7e4f74e3ff.jpg'
p868
S'A person is sitting near a dock and jumping into a pool .'
p869
sS'510531976_90bbee22a2.jpg'
p870
S'A man in a blue shirt is standing in front of a brown and yellow building .'
p871
sS'3701291852_373ea46bb6.jpg'
p872
S'A man and two children stand on a river , looking into the sea .'
p873
sS'2182488373_df73c7cc09.jpg'
p874
S'A man and woman stand at the top of cement stairs together .'
p875
sS'350443876_c9769f5734.jpg'
p876
S'A man is doing a skateboard trick in the middle of a courtyard .'
p877
sS'3334537556_a2cf4e9b9a.jpg'
p878
S'Two people on a camel with two dogs on top of the ice .'
p879
sS'1764955991_5e53a28c87.jpg'
p880
S'A dog with a stick in his mouth runs in a forest .'
p881
sS'2196846255_2c1635359a.jpg'
p882
S'A dog carries a Frisbee on the beach .'
p883
sS'2926233397_71e617f3a3.jpg'
p884
S'Brown dog licking its lips while standing in mud .'
p885
sS'1897025969_0c41688fa6.jpg'
p886
S'A black dog is looking at a black dog in the water .'
p887
sS'2815256108_fc1302117d.jpg'
p888
S'A man in a blue suit is standing with two women .'
p889
sS'3080056515_3013830309.jpg'
p890
S'a young boy wearing a red hat with a pink feather in it'
p891
sS'3285993030_87b0f1d202.jpg'
p892
S'A black dog is running through the snow .'
p893
sS'2594902417_f65d8866a8.jpg'
p894
S'A brown dog chases a smaller black dog .'
p895
sS'2208067635_39a03834ca.jpg'
p896
S'Boy climbing tree'
p897
sS'3251976937_20625dc2b8.jpg'
p898
S'A dog walking along a rocky path .'
p899
sS'1773928579_5664a810dc.jpg'
p900
S'A group of people are playing soccer on a sand dune .'
p901
sS'3737539561_d1dc161040.jpg'
p902
S'Children climb a large rocks in the forest .'
p903
sS'3061481868_d1e00b1f2e.jpg'
p904
S'A man in yellow and white is racing bike in the race .'
p905
sS'2612488996_9450de0e54.jpg'
p906
S'A person sitting in a Miami cart .'
p907
sS'2644430445_47c985a2ee.jpg'
p908
S'A woman in costume walking off the sidewalk .'
p909
sS'3004823335_9b82cbd8a7.jpg'
p910
S'A white dog is attempting to catch a Frisbee in its mouth .'
p911
sS'3630641436_8f9ac5b9b2.jpg'
p912
S'Two dogs play in the surf .'
p913
sS'3085226474_62aba51179.jpg'
p914
S'A woman rides a skateboard over a black bus at a restaurant .'
p915
sS'2774554310_007e980a90.jpg'
p916
S'A woman in a pink dress is posing with two others sitting at a wall .'
p917
sS'106490881_5a2dd9b7bd.jpg'
p918
S'A young boy wearing a blue shirt looks at the camera while holding a rope in the sand .'
p919
sS'3727752439_907795603b.jpg'
p920
S'A woman in a black dress is standing behind a man in a yellow shirt .'
p921
sS'2479652566_8f9fac8af5.jpg'
p922
S'A young boy in a white shirt holding up a piece of art .'
p923
sS'2968182121_b3b491df85.jpg'
p924
S'A greyhound in a yellow and blue shirt is racing .'
p925
sS'3564543247_05cdbc31cf.jpg'
p926
S'A boy is jumping into a pool while a man is watching the child'
p927
sS'917574521_74fab68514.jpg'
p928
S'Two girls in pink dresses laugh and play with a green ball .'
p929
sS'448252603_7d928c900e.jpg'
p930
S'A man and two girls are standing on a rocky shoreline near a body of water .'
p931
sS'444057017_f1e0fcaef7.jpg'
p932
S'The girl is sitting on a picnic table branch .'
p933
sS'326456451_effadbbe49.jpg'
p934
S'Two dogs are running through sand , away from the camera .'
p935
sS'771048251_602e5e8f45.jpg'
p936
S'A child is laying on a bed with a blue blanket .'
p937
sS'3609645320_815c294b65.jpg'
p938
S'A group of people sit on a bench , smiling at the camera .'
p939
sS'3030566410_393c36a6c5.jpg'
p940
S'Two children are playing in a bathtub with a grounded raft that is taken of them .'
p941
sS'2083434441_a93bc6306b.jpg'
p942
S'A woman in a striped jacket walks down the street carrying her white bags .'
p943
sS'3211556865_d1d9becf69.jpg'
p944
S'A person on a bike in the woods .'
p945
sS'2759860913_f75b39d783.jpg'
p946
S'A hiker with an orange backpack walks away from a snowy valley .'
p947
sS'270816949_ffad112278.jpg'
p948
S'A person stands on a mountaintop .'
p949
sS'2238019823_79318d1f11.jpg'
p950
S'A person is parasailing over water , with other people in the background .'
p951
sS'3221036999_3f7b152d8a.jpg'
p952
S'A dirt bike rider jumps in the air .'
p953
sS'3058439373_9276a4702a.jpg'
p954
S'A group of men are standing on a street with old buildings on the right .'
p955
sS'2475162978_2c51048dca.jpg'
p956
S'The little girl is walking with a yellow ball .'
p957
sS'1167669558_87a8a467d6.jpg'
p958
S'A man in a blue shirt is holding a cup in hand while staring at the camera .'
p959
sS'3518126579_e70e0cbb2b.jpg'
p960
S'Two men are walking across a wooden bridge in a city park .'
p961
sS'2963573792_dd51b5fbfb.jpg'
p962
S'A young girl in red pants on a red slide .'
p963
sS'2608289957_044849f73e.jpg'
p964
S'A young boy in a green and pink outfit plays with fist that is holding onto the ground .'
p965
sS'245252561_4f20f1c89e.jpg'
p966
S'A dog is walking on the sand next to a lake .'
p967
sS'3185409663_95f6b958d8.jpg'
p968
S'A small child walking on a snowy path next to a scenic view .'
p969
sS'3359551687_68f2f0212a.jpg'
p970
S'a group of people are dancing in a parade .'
p971
sS'3187492926_8aa85f80c6.jpg'
p972
S'A girl does the backstroke in the pool .'
p973
sS'1343426964_cde3fb54e8.jpg'
p974
S'A young woman with a red life jacket stands next to a man in a green shirt and blue shorts .'
p975
sS'561940436_64d6fc125d.jpg'
p976
S'The man and woman are posing with fake glasses and moustaches .'
p977
sS'3458211052_bb73084398.jpg'
p978
S'A group of people are standing outside a building .'
p979
sS'114051287_dd85625a04.jpg'
p980
S'A woman with a red apron on , sitting in the street with several people in the background .'
p981
sS'2706766641_a9df81969d.jpg'
p982
S'A little boy in a blue shirt holding his head out of a chair .'
p983
sS'3692593096_fbaea67476.jpg'
p984
S'A person on a motorcycle doing a wheelie off of a rock .'
p985
sS'3301811927_a2797339e5.jpg'
p986
S'A group of men play basketball .'
p987
sS'211295363_49010ca38d.jpg'
p988
S'A man is standing on the shore of the ocean posing like a bird .'
p989
sS'3490736665_38710f4b91.jpg'
p990
S'A dog is jumping up in the air above a tube .'
p991
sS'2103568100_5d018c495b.jpg'
p992
S'A white dog is walking along a rocky shoreline .'
p993
sS'3223224391_be50bf4f43.jpg'
p994
S'A white dog is running along a rocky beach .'
p995
sS'2450453051_f1d4a78ab4.jpg'
p996
S'The dog jumps up to get the Frisbee into the brown dog .'
p997
sS'416106657_cab2a107a5.jpg'
p998
S'A white dog is in the air with a stick in its mouth .'
p999
sS'2667015110_1670324a33.jpg'
p1000
S'A child wearing a red shirt is carrying a toy horse .'
p1001
sS'3741827382_71e93298d0.jpg'
p1002
S'The boy is wearing a life vest and jumps into the water .'
p1003
sS'2482629385_f370b290d1.jpg'
p1004
S'a black dog plays in the grass .'
p1005
sS'3250695024_93e8ab7305.jpg'
p1006
S'Two young women are walking down the street and one has a camera to her other .'
p1007
sS'3085667865_fa001816be.jpg'
p1008
S'A man surfs , the sun behind him , his face in shadow .'
p1009
sS'3168123064_d1983b8f92.jpg'
p1010
S'A man in a black suit and a man in a yellow shirt are in the snow .'
p1011
sS'241345905_5826a72da1.jpg'
p1012
S'A football coach is standing on a football field in a crowd .'
p1013
sS'1394368714_3bc7c19969.jpg'
p1014
S'A woman wearing a colorful scarf looks at the small child at the store .'
p1015
sS'486712504_36be449055.jpg'
p1016
S'A dog is running onto the top of a red and white hurdle .'
p1017
sS'2933912528_52b05f84a1.jpg'
p1018
S'Two dogs play in the water on the shore of the ocean .'
p1019
sS'241347760_d44c8d3a01.jpg'
p1020
S'A football player is in a red and white uniform and stands in a football game .'
p1021
sS'3247052319_da8aba1983.jpg'
p1022
S'A man in aerodynamic gear riding a motorcycle down a rocky trail .'
p1023
sS'3349451628_4249a21c8f.jpg'
p1024
S'A man is standing on a stone structure with his arms out like a bird .'
p1025
sS'1119015538_e8e796281e.jpg'
p1026
S'Two dogs play in the grass .'
p1027
sS'2435685480_a79d42e564.jpg'
p1028
S'A man sits on a rock with a camera and a building behind him .'
p1029
sS'387830531_e89c192b92.jpg'
p1030
S'A large brown dog is playing in the dirt and grass .'
p1031
sS'3537400880_8f410d747d.jpg'
p1032
S'A girl in a pink shirt is jumping into the air with their legs and arms spread .'
p1033
sS'2652522323_9218afd8c2.jpg'
p1034
S'A man and a woman play tug of war with a rope .'
p1035
sS'3197917064_e679a44b8e.jpg'
p1036
S'Two dogs playing in the snow .'
p1037
sS'3107513635_fe8a21f148.jpg'
p1038
S'Two children play in the snow outside .'
p1039
sS'3281078518_630a7a7f4f.jpg'
p1040
S'Two white dogs play tug-of-war with a toy .'
p1041
sS'2518508760_68d8df7365.jpg'
p1042
S'A dog wearing a muzzle is running on a course .'
p1043
sS'2588927489_f4da2f11ec.jpg'
p1044
S'The woman is wearing a black cap and holding a black bottle on the ground .'
p1045
sS'352382023_7605223d1c.jpg'
p1046
S'A dog with a collar running through the water'
p1047
sS'3385246141_a263d1053e.jpg'
p1048
S'The man is jumping through the air on a red snowboard .'
p1049
sS'2292406847_f366350600.jpg'
p1050
S'A boat with a red and white sail in a body of water in the back of this scene .'
p1051
sS'3655964639_21e76383d0.jpg'
p1052
S'A man and woman with their arms folded walking down the sidewalk .'
p1053
sS'3589367895_5d3729e3ea.jpg'
p1054
S'A group of men in white shirts and red dresses pose on the street .'
p1055
sS'1433142189_cda8652603.jpg'
p1056
S'A hiker wearing a black jacket and black pants is walking along a grassy path .'
p1057
sS'2774430374_fee1d793e7.jpg'
p1058
S'A boy is riding a scooter on the sidewalk .'
p1059
sS'3630332976_fdba22c50b.jpg'
p1060
S'Group of people dressed in elaborate costumes and playing a game .'
p1061
sS'2410320522_d967f0b75c.jpg'
p1062
S'Three dogs in hats are standing in a field of grass .'
p1063
sS'3565598162_56044bc2f7.jpg'
p1064
S'A group of people walking down the street with one on the phone in a green hat .'
p1065
sS'254295381_d98fa049f4.jpg'
p1066
S'A dog runs out of a tunnel on a course .'
p1067
sS'1131932671_c8d17751b3.jpg'
p1068
S'A young woman in a blue shirt and white shorts plays in a bathroom .'
p1069
sS'3398746625_5199beea71.jpg'
p1070
S'A young boy jumping into a lake .'
p1071
sS'3316725440_9ccd9b5417.jpg'
p1072
S'A cyclist is riding a bike on a dirt road .'
p1073
sS'3399284917_721aefe2a7.jpg'
p1074
S'A boy wearing a shirt is playing on a swing set .'
p1075
sS'3514019869_7de4ece2a5.jpg'
p1076
S'A dog leaps over a barrier .'
p1077
sS'2289068031_fe26990183.jpg'
p1078
S'A man is driving a blue ATV over a barrel .'
p1079
sS'3393343330_b13df4d8ec.jpg'
p1080
S"A woman is sitting at a table waiting to tell a customer 's fortune ."
p1081
sS'3456362961_d8f7e347a8.jpg'
p1082
S'One child is playing and ready to ride the trampoline .'
p1083
sS'2723477522_d89f5ac62b.jpg'
p1084
S'The large brown dog is chasing a ball .'
p1085
sS'3053743109_a2d780c0d2.jpg'
p1086
S'People are riding on a ride at a theme park or carnival .'
p1087
sS'1392272228_cf104086e6.jpg'
p1088
S'A black dog runs through the water with a stick in its mouth .'
p1089
sS'3220126881_b0a4f7cccb.jpg'
p1090
S'Two girls looking down at something , one is smiling .'
p1091
sS'3047264346_e24601bfbf.jpg'
p1092
S'A group of men in black coats are walking in front of a red building .'
p1093
sS'2533642917_a5eace85e6.jpg'
p1094
S'A boy in a blue shirt is standing by the bank of the sea on the beach .'
p1095
sS'2918769188_565dd48060.jpg'
p1096
S'A boy in a life jacket is swimming in a river .'
p1097
sS'561417861_8e25d0c0e8.jpg'
p1098
S'A man and woman stand on the side of a city street .'
p1099
sS'3567061016_62768dcce1.jpg'
p1100
S'A black and white bird in motion above the water .'
p1101
sS'2183227136_8bb657846b.jpg'
p1102
S'A man is standing on some rocks and casting a fishing line into the ocean'
p1103
sS'3254817653_632e840423.jpg'
p1104
S'A group of teenagers stand in a park .'
p1105
sS'434792818_56375e203f.jpg'
p1106
S'a young person jumping in the air on a red tricycle .'
p1107
sS'2450299735_62c095f40e.jpg'
p1108
S'A girl is being splashed by water in a pool .'
p1109
sS'3484832904_08619300d9.jpg'
p1110
S'A baseball player standing on the mound .'
p1111
sS'3220161734_77f42734b9.jpg'
p1112
S'A man jumps high in the air to push another man on a couch .'
p1113
sS'3532205154_5674b628ea.jpg'
p1114
S'A man and woman hug while holding a camera .'
p1115
sS'2945036454_280fa5b29f.jpg'
p1116
S'The white dog has a white toy in his mouth .'
p1117
sS'224369028_b1ac40d1fa.jpg'
p1118
S'People are walking through the fountain on a sunny day .'
p1119
sS'1317292658_ba29330a0b.jpg'
p1120
S'A child playing in water .'
p1121
sS'524282699_71e678a6bd.jpg'
p1122
S'Two dogs run through a snowy field .'
p1123
sS'2089426086_7acc98a3a8.jpg'
p1124
S'A young girl in a blue scarf looking at his cellphone .'
p1125
sS'436009777_440c7679a1.jpg'
p1126
S'A person with a white backpack is sitting on a wooden bench and watching the mountains .'
p1127
sS'888425986_e4b6c12324.jpg'
p1128
S'Two people are standing on a path in front of a white building .'
p1129
sS'2762301555_48a0d0aa24.jpg'
p1130
S'A girl in a pink dress is playing with a hula hoop outside .'
p1131
sS'317109978_cb557802e1.jpg'
p1132
S'A brown dog with a collar is standing outside with its tongue out .'
p1133
sS'373394550_1b2296b8c4.jpg'
p1134
S'A man wearing a white shirt is looking at a screen while sitting on a wooden bench .'
p1135
sS'2696866120_254a0345bc.jpg'
p1136
S'A small dog chews on a blue shoe next to a large dog .'
p1137
sS'2894217628_f1a4153dca.jpg'
p1138
S'A basketball player in blue is chased by a player in blue who is holding the ball .'
p1139
sS'3162045919_c2decbb69b.jpg'
p1140
S'A man in a black wetsuit is surfing in the waves .'
p1141
sS'470373679_98dceb19e7.jpg'
p1142
S'A man sits on a bench at night at night .'
p1143
sS'3051384385_c5c850c1f8.jpg'
p1144
S'Two little boys play in a large wagon tunnel .'
p1145
sS'2307118114_c258e3a47e.jpg'
p1146
S'The man in the gray shirt has a blue baseball cap on .'
p1147
sS'241031254_0c6f30e3d1.jpg'
p1148
S'A man and a woman walk in across a courtyard with black messenger bags on their shoulders .'
p1149
sS'241347204_007d83e252.jpg'
p1150
S'Football players in red congratulate each other as crowds in red cheer behind .'
p1151
sS'3375991133_87d7c40925.jpg'
p1152
S'Three people are swimming under a lake .'
p1153
sS'3433982387_3fa993cf5a.jpg'
p1154
S'Two girls dressed in pink are dancing .'
p1155
sS'197504190_fd1fc3d4b7.jpg'
p1156
S'Two children are playing with a soccer ball in a grassy field also containing a white goat and a small black dog .'
p1157
sS'2877503811_4e311253ec.jpg'
p1158
S'A group of people are standing outside of a building .'
p1159
sS'2631300484_be8621d17b.jpg'
p1160
S'A child is looking at the camera with an oriental bird also .'
p1161
sS'3062173277_bfb5ef4c45.jpg'
p1162
S'A group of people are paddling their way across the water .'
p1163
sS'370713359_7560808550.jpg'
p1164
S'A man looks at a display of corn toilets .'
p1165
sS'2953015871_cae796b6e7.jpg'
p1166
S'A black and brown dog is in the grass with a toy in its mouth .'
p1167
sS'3494394662_3edfd4a34c.jpg'
p1168
S'A man with a Mohawk and beard , with his hand on his chin looking off into the distance .'
p1169
sS'315880837_90db309bab.jpg'
p1170
S'Three dogs run in the snow .'
p1171
sS'352981175_16ff5c07e4.jpg'
p1172
S'A man is parachuting down the snowy mountain .'
p1173
sS'537532165_e4b7c0e61a.jpg'
p1174
S'A child wearing a blue shirt is playing on a playground .'
p1175
sS'1674612291_7154c5ab61.jpg'
p1176
S'A white dog is leaping into the air to catch a Frisbee in front of a fence .'
p1177
sS'3114944484_28b5bb9842.jpg'
p1178
S'A group of women with black shirts .'
p1179
sS'1408958345_68eea9a4e4.jpg'
p1180
S'A little girl with a blue shirt stands near a wall surrounded by water .'
p1181
sS'3197981073_3156963446.jpg'
p1182
S'A person with black hair and a shaved head .'
p1183
sS'757046028_ff5999f91b.jpg'
p1184
S'A man in a pink shirt and tie is holding a guitar .'
p1185
sS'3320032226_63390d74a6.jpg'
p1186
S'A child in a red coat sliding down a snowy hill .'
p1187
sS'2646116932_232573f030.jpg'
p1188
S"A child in a blue shirt is holding onto the sides 's swing in a park ."
p1189
sS'2905942129_2b4bf59bc0.jpg'
p1190
S'A small blonde boy throws a blue soccer ball .'
p1191
sS'3200120942_59cfbb3437.jpg'
p1192
S'a lone person riding a bike with only a arms on a red rope'
p1193
sS'3480051754_18e5802558.jpg'
p1194
S'A young boy walks down a road with four turkeys'
p1195
sS'1446053356_a924b4893f.jpg'
p1196
S'A group of kids playing soccer in a field .'
p1197
sS'2689001252_e0016c89f0.jpg'
p1198
S'Two girls playing in water .'
p1199
sS'2096771662_984441d20d.jpg'
p1200
S'A man and a woman in the mountains .'
p1201
sS'2215136723_960edfea49.jpg'
p1202
S'A boy in a red jacket and balck hat sliding on his knees down a snowy hill'
p1203
sS'424779662_568f9606d0.jpg'
p1204
S'A group of people in colorful costumes standing on the sidewalk .'
p1205
sS'2813992915_f732cf8539.jpg'
p1206
S'This man has balanced his bicycle on a handrail .'
p1207
sS'2251747182_6b67a3ab8b.jpg'
p1208
S'The young basketball player is preparing to shoot the ball .'
p1209
sS'2921094201_2ed70a7963.jpg'
p1210
S'A woman and a baby are sitting at a table in a food court .'
p1211
sS'3589895574_ee08207d26.jpg'
p1212
S'A small child plays on a swing with his legs attached to the seat .'
p1213
sS'150387174_24825cf871.jpg'
p1214
S'A person on a bmx bike .'
p1215
sS'486917990_72bd4069af.jpg'
p1216
S'a rock climber climbs a rock wall .'
p1217
sS'3585487286_ef9a8d4c56.jpg'
p1218
S'A white dog runs along the beach .'
p1219
sS'300922408_05a4f9938c.jpg'
p1220
S'A woman is holding a rope while another man looks on .'
p1221
sS'3471841031_a949645ba8.jpg'
p1222
S'A man and woman walk hand-in-hand surrounded by large trees .'
p1223
sS'3413571342_b9855795e2.jpg'
p1224
S'A surfer is riding a wave in a large body of water .'
p1225
sS'3354330935_de75be9d2f.jpg'
p1226
S'A person skis down a snowy hill .'
p1227
sS'2806710650_e201acd913.jpg'
p1228
S'Two children are running up a grassy hill .'
p1229
sS'3437654963_c4fdc17e8b.jpg'
p1230
S'Two dogs play tug of war with a toy .'
p1231
sS'476759700_8911f087f8.jpg'
p1232
S'A young boy wearing a blue cap hits a baseball into a window .'
p1233
sS'583174725_6b522b621f.jpg'
p1234
S'A young girl at a skate park wearing a purple shirt .'
p1235
sS'1267711451_e2a754b4f8.jpg'
p1236
S'Black and white dog running across brown grass .'
p1237
sS'3545586120_283d728a97.jpg'
p1238
S'Two men are sitting down inside and one of the men is wearing a Batman game .'
p1239
sS'3358682439_be4b83544c.jpg'
p1240
S'A dog is being attacked by a jumping with a woman next to him .'
p1241
sS'2932740428_b15384f389.jpg'
p1242
S'A person rides a motorbike through the air .'
p1243
sS'1626754053_81126b67b6.jpg'
p1244
S'A black and white dog is running through the grass .'
p1245
sS'3123463486_f5b36a3624.jpg'
p1246
S'A black and brown dog is playing with a black and brown dog in the sand .'
p1247
sS'415793623_6c1225ae27.jpg'
p1248
S'A man in a red shirt climbs a sheer cliff face over the tree tops .'
p1249
sS'410453140_5401bf659a.jpg'
p1250
S'A little girl in a pink shirt is dancing in front of a group of people .'
p1251
sS'339658315_fbb178c252.jpg'
p1252
S'A group of people are performing on a stage in front of an audience .'
p1253
sS'2480850054_de3433b54a.jpg'
p1254
S'A big brown dog is leaping over a fallen tree in the woods .'
p1255
sS'1389264266_8170bc1c54.jpg'
p1256
S'Two people standing on the street .'
p1257
sS'2901880865_3fd7b66a45.jpg'
p1258
S'A man surfing in the ocean .'
p1259
sS'3143982558_9e2d44c155.jpg'
p1260
S'Two young girls hold a red bubble .'
p1261
sS'3613800013_5a54968ab0.jpg'
p1262
S'A dog runs through the grass with a toy in its mouth .'
p1263
sS'244571201_0339d8e8d1.jpg'
p1264
S'A group of girls in bathing suits are playing are in the ocean with a red toy that is floating in the background .'
p1265
sS'444481722_690d0cadcf.jpg'
p1266
S'A woman with a backpack walks along a city street .'
p1267
sS'3364151356_eecd07a23e.jpg'
p1268
S'A brown dog is running .'
p1269
sS'3702436188_2c26192fd0.jpg'
p1270
S'A boy skateboards down the railing of some graffiti stairs'
p1271
sS'3397220683_4aca010f86.jpg'
p1272
S'The dog on the right is baring his teeth , above the snowy ground .'
p1273
sS'3641022607_e7a5455d6c.jpg'
p1274
S'A man in a blue wetsuit is wakeboarding through a wave .'
p1275
sS'1682079482_9a72fa57fa.jpg'
p1276
S'A blonde toddler in a blue shirt standing in front of a house with his arms raised .'
p1277
sS'3155451946_c0862c70cb.jpg'
p1278
S'Two men are playing basketball and one is trying to block the other .'
p1279
sS'2510020918_b2ca0fb2aa.jpg'
p1280
S'A girl in a pink dress is bearing his shadow next to a child .'
p1281
sS'3232470286_903a61ea16.jpg'
p1282
S'A group of people in matching uniforms jogging around a track .'
p1283
sS'3181701312_70a379ab6e.jpg'
p1284
S'A man is smoking a cigarette in front of a big metal machine in the street .'
p1285
sS'53043785_c468d6f931.jpg'
p1286
S"A young boy is splashed by the ocean 's waves while she plays on the beach ."
p1287
sS'3655074079_7df3812bc5.jpg'
p1288
S'A woman in a red sweater and a girl is in front of a girl in a green hoodie & a girl with a brown jacket and pink purse .'
p1289
sS'533713007_bf9f3e25b4.jpg'
p1290
S'A young lady wearing yellow is feeding a small child at the table .'
p1291
sS'136644343_0e2b423829.jpg'
p1292
S'A young child is swinging on a swing beside some trees and a river .'
p1293
sS'2345984157_724823b1e4.jpg'
p1294
S'A brown dog carries a stick in his mouth .'
p1295
sS'3141293960_74459f0a24.jpg'
p1296
S'The skateboarder wearing the white and black jacket is doing a stunt .'
p1297
sS'2607462776_78e639d891.jpg'
p1298
S'A man looking into the water as he looks out over some foliage .'
p1299
sS'3461041826_0e24cdf597.jpg'
p1300
S'A white dog is swimming in some water from a beach plate .'
p1301
sS'3099923914_fd450f6d51.jpg'
p1302
S'Several people wait for a train .'
p1303
sS'2495931537_9b8d4474b6.jpg'
p1304
S'A brown dog is playing with a smaller curly haired dog .'
p1305
sS'3597326009_3678a98a43.jpg'
p1306
S'A woman wearing a blue helmet is sitting next to a red and white wall .'
p1307
sS'1356796100_b265479721.jpg'
p1308
S'The little boy in the striped shirt is swinging outside .'
p1309
sS'533979933_a95b03323b.jpg'
p1310
S'A young boy in a red shirt is standing in the sand on a beach .'
p1311
sS'241346971_c100650320.jpg'
p1312
S'Two football players bang into each other during a football game .'
p1313
sS'2981702521_2459f2c1c4.jpg'
p1314
S'a woman walks on the subway .'
p1315
sS'3385593926_d3e9c21170.jpg'
p1316
S'Two brown dogs are running in the snow in front of some trees .'
p1317
sS'3498327617_d2e3db3ee3.jpg'
p1318
S'A dog is running in the water .'
p1319
sS'3217187564_0ffd89dec1.jpg'
p1320
S'A black greyhound in white and green coming up on the rear of a white greyhound in yellow and black in a race .'
p1321
sS'3619416477_9d18580a14.jpg'
p1322
S'A dog is jumping into the water .'
p1323
sS'2788945468_74a9618cfa.jpg'
p1324
S'A man in a blue shirt is standing in front of metal machine in the street .'
p1325
sS'3523474077_16e14bc54c.jpg'
p1326
S'A man sits on the curb surrounded by buildings .'
p1327
sS'2878190821_6e4e03dc5f.jpg'
p1328
S'A young man in a blue shirt smokes a cigarette .'
p1329
sS'2763044275_aa498eb88b.jpg'
p1330
S'Two black dogs are running in the grass , one has a green ball in his mouth .'
p1331
sS'2064790732_219e52e19c.jpg'
p1332
S'A group of children sit outside on the ground in a parking lot .'
p1333
sS'3220650628_4ed964e5b4.jpg'
p1334
S'A group of people stand in front of a large apartment building .'
p1335
sS'2649406158_ded6be38de.jpg'
p1336
S'Two racing dogs run in the mud .'
p1337
sS'2473791980_805c819bd4.jpg'
p1338
S'A man is riding a board in the ocean and is being pulled from above .'
p1339
sS'127490019_7c5c08cb11.jpg'
p1340
S'A child in a white shirt is playing in the muddy water .'
p1341
sS'3048597471_5697538daf.jpg'
p1342
S'A brown dog is running through water with a stick in its mouth .'
p1343
sS'3143155555_32b6d24f34.jpg'
p1344
S'A young girl with curly hair is covered in a large blow-up .'
p1345
sS'3044536048_e615466e7f.jpg'
p1346
S'A surfer rides a small wave on a sunny day .'
p1347
sS'2378149488_648e5deeac.jpg'
p1348
S'a person on a bench feeds a dog .'
p1349
sS'3497224764_6e17544e0d.jpg'
p1350
S'A woman is holding a drink in front of a white tent .'
p1351
sS'3613424631_3ae537624f.jpg'
p1352
S'Two men in orange vests are pulling a jeep out of a ravine while another man sits inside .'
p1353
sS'3571147934_d1c8af1d6e.jpg'
p1354
S'A group of people are standing on a sidewalk in front of a store that has buckets .'
p1355
sS'2764178773_d63b502812.jpg'
p1356
S'A man riding a dirt bike in the mud .'
p1357
sS'494921598_af73bda568.jpg'
p1358
S'Two men in hockey uniforms on the ice .'
p1359
sS'1348304997_afe60a61df.jpg'
p1360
S'a man in a white shirt is jumping from a staircase under a tree .'
p1361
sS'3639967449_137f48b43d.jpg'
p1362
S'Two men and a woman pose for a picture .'
p1363
sS'3697359692_8a5cdbe4fe.jpg'
p1364
S'Two women are smiling whilst sitting in a room with Christmas lights .'
p1365
sS'2120383553_5825333a3f.jpg'
p1366
S'A child in a blue shirt holding onto a table bed'
p1367
sS'3673165148_67f217064f.jpg'
p1368
S'A black and white dog runs along the beach .'
p1369
sS'542317719_ed4dd95dc2.jpg'
p1370
S'A young boy in an orange shirt has wild hair after sliding down a slide .'
p1371
sS'2831217847_555b2f95ca.jpg'
p1372
S'There is a few people walking in the woods .'
p1373
sS'136552115_6dc3e7231c.jpg'
p1374
S'A person in a red jacket and blue backpack is people riding a bike up a hill .'
p1375
sS'2677656448_6b7e7702af.jpg'
p1376
S'A dog jumps into a swimming pool to retrieve some floating tennis balls .'
p1377
sS'2196107384_361d73a170.jpg'
p1378
S'A man on a bike does a stunt on a ramp filled with graffiti .'
p1379
sS'2994179598_a45c2732b5.jpg'
p1380
S'A man wearing a blue shirt looks to the left while standing in a game .'
p1381
sS'2301525531_edde12d673.jpg'
p1382
S'A black and white dog running in the snow'
p1383
sS'3155390408_8e1a81efb2.jpg'
p1384
S'A person is eating pasta , while a woman looks on .'
p1385
sS'3592968286_b63c81bcd2.jpg'
p1386
S'Two men stand by a table with electronics on it .'
p1387
sS'3207358897_bfa61fa3c6.jpg'
p1388
S'A man performs a dirt bike stunt .'
p1389
sS'700884207_d3ec546494.jpg'
p1390
S'A little girl in a blue shirt has a bracelet up and is making a funny face'
p1391
sS'54501196_a9ac9d66f2.jpg'
p1392
S'A woman in a red shirt is sitting on the edge of a high cliff .'
p1393
sS'2573625591_70291c894a.jpg'
p1394
S'Two dogs are playing in a grassy area .'
p1395
sS'416960865_048fd3f294.jpg'
p1396
S'A person in a yellow helmet climbing a cliff face , snow behind him .'
p1397
sS'2534502836_7a75305655.jpg'
p1398
S'A small dog runs through a field .'
p1399
sS'3109704348_c6416244ce.jpg'
p1400
S'A man in a football uniform hitting a ball with a bat .'
p1401
sS'2718495608_d8533e3ac5.jpg'
p1402
S'A woman in sunglasses smiles and smiles at the camera .'
p1403
sS'2708686056_1b8f356264.jpg'
p1404
S'A little girl in jeans is standing in the surf at the beach .'
p1405
sS'3729525173_7f984ed776.jpg'
p1406
S'A man is sitting at a table outside surrounded by houses .'
p1407
sS'2991994607_06f24ec7a6.jpg'
p1408
S'Two women wearing black are posing for a picture'
p1409
sS'3287549827_04dec6fb6e.jpg'
p1410
S'A snowboarder high in the air above an indoor ramp .'
p1411
sS'2748729903_3c7c920c4d.jpg'
p1412
S'A man standing in the ocean under a blue sky .'
p1413
sS'496110746_a93ca191ae.jpg'
p1414
S'A woman in a red dress raises her arm .'
p1415
sS'3203453897_6317aac6ff.jpg'
p1416
S'Two people stand outside of a building that has cars parked in the background .'
p1417
sS'3213992947_3f3f967a9f.jpg'
p1418
S'A boy wearing a blue coat and cap is standing in the snow .'
p1419
sS'1714316707_8bbaa2a2ba.jpg'
p1420
S'A man wearing a yellow jacket stands at some frozen cliff .'
p1421
sS'3182121297_38c99b2769.jpg'
p1422
S'A person riding a snowboard races through snow .'
p1423
sS'1056338697_4f7d7ce270.jpg'
p1424
S'Girl in red shirt standing on the sidewalk .'
p1425
sS'160792599_6a7ec52516.jpg'
p1426
S'A group of children stand in the sand on a beach .'
p1427
sS'3686924335_3c51e8834a.jpg'
p1428
S'A white plane flies through the air with someone flying in his mouth .'
p1429
sS'3315616181_15dd137e27.jpg'
p1430
S'A skateboarder performs a trick in front of a glass building .'
p1431
sS'2856080862_95d793fa9d.jpg'
p1432
S'A group of children in a field .'
p1433
sS'801607443_f15956d1ce.jpg'
p1434
S'A climber is suspended on an overhang that overlooks a tree covered hill .'
p1435
sS'3294209955_a1f1e2cc19.jpg'
p1436
S'A dog with its tongue out of its mouth runs on the grass .'
p1437
sS'2458269558_277012780d.jpg'
p1438
S'A girl in a blue shirt is holding a red rope under his hands up .'
p1439
sS'1386964743_9e80d96b05.jpg'
p1440
S'A woman stands in a field near a tree .'
p1441
sS'2021613437_d99731f986.jpg'
p1442
S'a boy wearing a red U. lunges behind him'
p1443
sS'3095225232_2e6e6dc92e.jpg'
p1444
S'Several people standing on a stone wall looking out of the distance .'
p1445
sS'3070031806_3d587c2a66.jpg'
p1446
S'A man and a woman are standing on a camel by some water with a man walking behind them .'
p1447
sS'3482974845_db4f16befa.jpg'
p1448
S'Two dogs on a beach , in the snow .'
p1449
sS'1415591512_a84644750c.jpg'
p1450
S'A boy wearing a red jacket is walking .'
p1451
sS'3113322995_13781860f2.jpg'
p1452
S'A man is in a dog sled race with snow on the ground .'
p1453
sS'2247889670_413db8094b.jpg'
p1454
S'A group of people are surfing on a beach .'
p1455
sS'3605676864_0fb491267e.jpg'
p1456
S'A young boy slides down a water slide with his eyes closed .'
p1457
sS'3360930596_1e75164ce6.jpg'
p1458
S'The football player in red keeps the football away from the player in purple and white .'
p1459
sS'2197275664_fabcf3424b.jpg'
p1460
S'A man wearing shorts and a white shirt plays in a hall with stuffed animals .'
p1461
sS'279728508_6bd7281f3c.jpg'
p1462
S'A little boy in a white shirt and blue jeans is standing in the middle of a railroad tracks beside a fence .'
p1463
sS'2396025708_e4a72e2558.jpg'
p1464
S'A surfer is riding a wave in a large body of water .'
p1465
sS'2431470169_0eeba7d602.jpg'
p1466
S'A little boy sits on a picnic table bench .'
p1467
sS'524105255_b346f288be.jpg'
p1468
S'A man and woman stand in front of a white building and look at their hands .'
p1469
sS'3344233740_c010378da7.jpg'
p1470
S'A man walks under a bridge and looks out over the windows .'
p1471
sS'1490213660_9ea45550cf.jpg'
p1472
S'A white dog with a brown spot over one eye in a pool of blue water with a stick in its mouth .'
p1473
sS'421730441_6b2267fd31.jpg'
p1474
S'A man in a black coat and hat sits by an old building .'
p1475
sS'3530843182_35af2c821c.jpg'
p1476
S'A woman wearing a red hat and fuzzy hat smiles at the camera .'
p1477
sS'3072114570_e1c0127529.jpg'
p1478
S'A man in yellow and blue rides a bike near a blue and blue fence .'
p1479
sS'3317073508_7e13565c1b.jpg'
p1480
S'A man on a football field , holding a football , runs dog down the field .'
p1481
sS'2075321027_c8fcbaf581.jpg'
p1482
S'A man sits on a sidewalk wearing a green shirt and t-shirt .'
p1483
sS'3657016761_d553e514d9.jpg'
p1484
S'A girl in white is throwing a volleyball net .'
p1485
sS'3280052365_c4644bf0a5.jpg'
p1486
S'a girl in a pink dress is eating some attention whilst other children look on .'
p1487
sS'476233374_e1396998ef.jpg'
p1488
S'A man is jogging on a road by a shoreline , holding an item up in the air .'
p1489
sS'3218480482_66af7587c8.jpg'
p1490
S'A basketball player wearing a white uniform is dribbling the ball on the court .'
p1491
sS'256085101_2c2617c5d0.jpg'
p1492
S'A brown and white dog with a collar and collar has its mouth wide open .'
p1493
sS'327415627_6313d32a64.jpg'
p1494
S'Large brown dog running through the grass .'
p1495
sS'241345811_46b5f157d4.jpg'
p1496
S'A man in white and red tries to stop a man with a ball .'
p1497
sS'493109089_468e105233.jpg'
p1498
S'A young boy jumping in a jungle gym .'
p1499
sS'2878272032_fda05ffac7.jpg'
p1500
S'A black dog is looking at two dogs at the beach .'
p1501
sS'3545652636_0746537307.jpg'
p1502
S'A girl in red and blue is holding a football and runs towards another child on the grass .'
p1503
sS'3123351642_3794f2f601.jpg'
p1504
S'A group of people watching a man being ridden by a large van .'
p1505
sS'3375070563_3c290a7991.jpg'
p1506
S'A white bird with a long orange beak is flying through the water .'
p1507
sS'2893374123_087f98d58a.jpg'
p1508
S'a man wearing a blue helmet riding his bicycle down the street .'
p1509
sS'2256133102_e2c8314ecb.jpg'
p1510
S'A man is repelling down a cliff next to a lake .'
p1511
sS'2204550058_2707d92338.jpg'
p1512
S'A woman with a black shirt and blond woman wearing black are smiling .'
p1513
sS'3154641421_d1b9b8c24c.jpg'
p1514
S'Two men are playing basketball and one is trying to block the other .'
p1515
sS'3459156091_c1879ebe28.jpg'
p1516
S'A white dog is being led by a small brown dog .'
p1517
sS'96420612_feb18fc6c6.jpg'
p1518
S'A man is jumping into the air and does a trick with his shoes .'
p1519
sS'3514179514_cbc3371b92.jpg'
p1520
S'A group of men in yellow shirts and dark shorts are running on a track .'
p1521
sS'3564312955_716e86c48b.jpg'
p1522
S'A girl in a pink and pink bikini is splashing in shallow water .'
p1523
sS'246055693_ccb69ac5c6.jpg'
p1524
S'A dog runs down the street with its tongue hanging out .'
p1525
sS'2847615962_c330bded6e.jpg'
p1526
S'The dog is standing on the steps by a yellow building .'
p1527
sS'1084040636_97d9633581.jpg'
p1528
S'A white dog is running through snow .'
p1529
sS'219301555_17883a51bd.jpg'
p1530
S'A man with a shaved head stands in a river and holds onto a rope .'
p1531
sS'3128164023_ebe8da4c32.jpg'
p1532
S'The two dogs are running through shallow water .'
p1533
sS'2589241160_3832440850.jpg'
p1534
S'Two dogs are running through shallow grass next to a tree in front of trees .'
p1535
sS'3516825206_5750824874.jpg'
p1536
S'A group of people sit in a park bench in the middle of a wooded trail with a large wooden gate .'
p1537
sS'485245061_5a5de43e20.jpg'
p1538
S'A person riding a sled down a snowy slope .'
p1539
sS'523985664_c866af4850.jpg'
p1540
S'A group of kids are posing together with males nearby .'
p1541
sS'3025549604_38b86198f5.jpg'
p1542
S'A group of children sit in the shade of a statue inside the house .'
p1543
sS'2339106348_2df90aa6a9.jpg'
p1544
S'Three girls are posing in elegant outfits nearby a tree and a building .'
p1545
sS'56489627_e1de43de34.jpg'
p1546
S'A group of people walking in a scrubland , a mountain in the background .'
p1547
sS'566397227_a469e9e415.jpg'
p1548
S'A smiling boy is sitting on the grass .'
p1549
sS'2308271254_27fb466eb4.jpg'
p1550
S'Two dogs playing in the water with a stick'
p1551
sS'3217620013_8b17873273.jpg'
p1552
S'The basketball player in white is wearing an orange uniform with the ball .'
p1553
sS'3387542157_81bfd00072.jpg'
p1554
S'A girl in a blue and white uniform with a green and blue football on it .'
p1555
sS'2218609886_892dcd6915.jpg'
p1556
S'A man in a hat sits outside reading a book .'
p1557
sS'2473738924_eca928d12f.jpg'
p1558
S'A man in a white dress plays guitar while a man in blue holds a black umbrella .'
p1559
sS'1107246521_d16a476380.jpg'
p1560
S'A black dog runs along the green grass carrying a toy in its mouth .'
p1561
sS'3259991972_fce3ab18b2.jpg'
p1562
S'A boy is riding a skateboard down a slope that leads from a bridge to the street below .'
p1563
sS'2041867793_552819a40b.jpg'
p1564
S"A little girl wearing a yellow shirt holding a yellow bag holding a little girl 's face ."
p1565
sS'3562050678_4196a7fff3.jpg'
p1566
S'A group of people sit in lawn chairs at the edge of a large cliff .'
p1567
sS'2559921948_06af25d566.jpg'
p1568
S'A young boy wearing a hat is walking on the beach .'
p1569
sS'3214237686_6566b8b52f.jpg'
p1570
S'A man is flying through the air hanging from a paraglider while others are water-skiing .'
p1571
sS'3484649669_7bfe62080b.jpg'
p1572
S'A young boy slides down a water slide with his eyes closed .'
p1573
sS'3482062809_3b694322c4.jpg'
p1574
S'A group of people walking on a sidewalk .'
p1575
sS'2616643090_4f2d2d1a44.jpg'
p1576
S'A child is holding an apple in his mouth'
p1577
sS'2648165716_02e2e74fd6.jpg'
p1578
S'A little boy in blue and wearing a backwards cap is swinging .'
p1579
sS'3468694409_a51571d621.jpg'
p1580
S'A crowd of people look in the distance at night .'
p1581
sS'317488612_70ac35493b.jpg'
p1582
S'The white dog is carrying a stick in its mouth while standing in the snow .'
p1583
sS'1554713437_61b64527dd.jpg'
p1584
S'A dog is running along a grassy path with a large tree in the background .'
p1585
sS'2370481277_a3085614c9.jpg'
p1586
S'A group of boys playing rugby .'
p1587
sS'1262583859_653f1469a9.jpg'
p1588
S'A man in blue and white biking gear stands on a motorcycle .'
p1589
sS'3477715432_79d82487bb.jpg'
p1590
S'A man and a woman wear all white shirts sit on a hardwood floor .'
p1591
sS'293881927_ac62900fd4.jpg'
p1592
S'A brown dog jumps over a barrier that is black and white .'
p1593
sS'180094434_b0f244832d.jpg'
p1594
S'A woman with a backpack stands on a sidewalk .'
p1595
sS'2883099128_0b056eed9e.jpg'
p1596
S'A shirtless man in red shorts playing tennis .'
p1597
sS'3539767254_c598b8e6c7.jpg'
p1598
S'A man and a dog are standing on a pier next to a boat in the water .'
p1599
sS'3227148358_f152303584.jpg'
p1600
S'A white crane flies over water .'
p1601
sS'2295750198_6d152d7ceb.jpg'
p1602
S'A small child in a blue jacket is walking through a hilly field of grass .'
p1603
sS'3406930103_4db7b4dde0.jpg'
p1604
S'A tan dog walks through the snow .'
p1605
sS'480505313_2dc686e5db.jpg'
p1606
S'Two men are posing for a photograph in front of a waterfall .'
p1607
sS'463978865_c87c6ca84c.jpg'
p1608
S'A woman walks with another person at night .'
p1609
sS'2470486377_c3a39ccb7b.jpg'
p1610
S'A man is holding a rainbow flag on a park bench while another girl watches .'
p1611
sS'1287073593_f3d2a62455.jpg'
p1612
S'A man and a woman walk through the snow .'
p1613
sS'1122944218_8eb3607403.jpg'
p1614
S'A baby in a blue playpen .'
p1615
sS'447111935_5af98563e3.jpg'
p1616
S'A dog is near a ball held by another dog with a ball in its mouth .'
p1617
sS'127488876_f2d2a89588.jpg'
p1618
S'A boy walks through a meadow near some trees .'
p1619
sS'2189995738_352607a63b.jpg'
p1620
S'Three dogs are playing in the water .'
p1621
sS'2796801478_8ebd7e550b.jpg'
p1622
S'A man doing some sort of trick .'
p1623
sS'491405109_798222cfd0.jpg'
p1624
S'Two little girls are playing on a bed .'
p1625
sS'3359530430_249f51972c.jpg'
p1626
S'The people ride down the road on sleds .'
p1627
sS'2295216243_0712928988.jpg'
p1628
S'People walk along on a dirt road .'
p1629
sS'2842865689_e37256d9ce.jpg'
p1630
S'A young man sits on a bench in the dark .'
p1631
sS'2731171552_4a808c7d5a.jpg'
p1632
S'Two men are kickboxing .'
p1633
sS'533483374_86c5d4c13e.jpg'
p1634
S'A brown dog runs on the beach with a yellow ball in his mouth .'
p1635
sS'3640422448_a0f42e4559.jpg'
p1636
S'Man doing tricks on a motorbike on the edge of a cliff .'
p1637
sS'2351479551_e8820a1ff3.jpg'
p1638
S'A boy stands next to a chain link fence .'
p1639
sS'2105756457_a100d8434e.jpg'
p1640
S'A boy in blue jeans and a blue shirt is standing at a table with a picnic table .'
p1641
sS'2843695880_eeea6c67db.jpg'
p1642
S'A person is swimming in crystal clear ocean water while his or her boat is anchored in the background .'
p1643
sS'488408004_a1e26d4886.jpg'
p1644
S'A little girl in a blue shirt is walking on a path in a park .'
p1645
sS'3042380610_c5ea61eef8.jpg'
p1646
S'A group of people in a dim room .'
p1647
sS'3040033126_9f4b88261b.jpg'
p1648
S'A dog jumps into a body of water with a fall .'
p1649
sS'2526041608_a9775ab8d7.jpg'
p1650
S'A soccer player in blue is striking the ball whilst being pursued by a player in green .'
p1651
sS'3500136982_bf7a85531e.jpg'
p1652
S'A person wearing a blue and white coat rides a bicycle down the street .'
p1653
sS'2928152792_b16c73434a.jpg'
p1654
S'A young boy is trying to catch a baseball into a baseball ball .'
p1655
sS'3347798761_5c5260b000.jpg'
p1656
S'A man is in the air on a bike .'
p1657
sS'3718964174_cb2dc1615e.jpg'
p1658
S'A woman in a black coat and black jacket in a crowd .'
p1659
sS'1490670858_e122df2560.jpg'
p1660
S'A man is playing a red guitar whilst cooking .'
p1661
sS'3725202807_12fbfdd207.jpg'
p1662
S'A woman on the street with a shopping cart in a parking lot .'
p1663
sS'1404832008_68e432665b.jpg'
p1664
S'A man is climbing on a chain fence .'
p1665
sS'3569979711_6507841268.jpg'
p1666
S'A young boy wearing red shorts runs along the beach .'
p1667
sS'260520547_944f9f4c91.jpg'
p1668
S'A group of people are standing on a ledge overlooking low clouds .'
p1669
sS'3358558292_6ab14193ed.jpg'
p1670
S'A group of people are posing for a picture .'
p1671
sS'3100251515_c68027cc22.jpg'
p1672
S'A group of people in hard hats stand and look at something while one takes a picture .'
p1673
sS'3542484764_77d8920ec9.jpg'
p1674
S'A baseball player in a white and white uniform is walking out of the baseball player trying to kick the ball .'
p1675
sS'3544793763_b38546a5e8.jpg'
p1676
S'Two men kick each other while one plays the guitar .'
p1677
sS'3425835357_204e620a66.jpg'
p1678
S'A young boy dressed like a pirate is holding a stick .'
p1679
sS'3427118504_93126c83e0.jpg'
p1680
S'A man and a child are sitting on a bed with a blue blanket .'
p1681
sS'302983277_69a4e732e4.jpg'
p1682
S'A man biking in front of mountains .'
p1683
sS'2288099178_41091aa00c.jpg'
p1684
S'A young boy is sitting on his bike and wearing a red shirt and white helmet .'
p1685
sS'534875358_6ea30d3091.jpg'
p1686
S'A woman in a short skirt holds a plastic bottle as she walks down a street with auto and pedestrian traffic .'
p1687
sS'3591462960_86045906bd.jpg'
p1688
S'A race car with a cloud of dust behind it'
p1689
sS'3299820401_c2589186c5.jpg'
p1690
S'A mountain biker with a backpack crests a ridge .'
p1691
sS'514990193_2d2422af2c.jpg'
p1692
S'A dog is in midair and a woman is trying to catch him .'
p1693
sS'3015863181_92ff43f4d8.jpg'
p1694
S'A man is asleep on a chair in front of a blue door .'
p1695
sS'1786425974_c7c5ad6aa1.jpg'
p1696
S'A black dog and a brown dog play in the grass .'
p1697
sS'416788726_5b4eb1466e.jpg'
p1698
S'Several people wait for a train .'
p1699
sS'172097782_f0844ec317.jpg'
p1700
S'Two men are wakeboarding in the water and are holding onto one arm .'
p1701
sS'405615014_03be7ef618.jpg'
p1702
S'A man in a yellow hi-viz jacket and gold cross around a bus .'
p1703
sS'2549968784_39bfbe44f9.jpg'
p1704
S'A man with glasses is wearing a red shirt and swimming cap .'
p1705
sS'1659358141_0433c9bf99.jpg'
p1706
S'A brown dog is chewing on a green bone .'
p1707
sS'3472364264_dbde5a8d0a.jpg'
p1708
S'A black dog on a beach is carrying a stick in its mouth .'
p1709
sS'494792770_2c5f767ac0.jpg'
p1710
S'A brown dog is standing on its hind legs is digging in the grass .'
p1711
sS'3694064560_467683205b.jpg'
p1712
S'A man in a suit is looking down while a man stands behind him .'
p1713
sS'2891617125_f939f604c7.jpg'
p1714
S'A motorcyclist is going a green motorcycle .'
p1715
sS'2602258549_7401a3cdae.jpg'
p1716
S'A man and two women are standing in front of a window'
p1717
sS'348380010_33bb0599ef.jpg'
p1718
S'A brown dog is rolling on its back on the grass .'
p1719
sS'2529116152_4331dabf50.jpg'
p1720
S'A man is hanging from each other next to a window .'
p1721
sS'132489044_3be606baf7.jpg'
p1722
S'A man in a hat sits outside in a restaurant .'
p1723
sS'2224450291_4c133fabe8.jpg'
p1724
S'A girl is blowing something in a hole .'
p1725
sS'3246991821_750a3097e2.jpg'
p1726
S'A little girl in a pink tutu standing on her back in a neighborhood .'
p1727
sS'468310111_d9396abcbd.jpg'
p1728
S'There are three dogs running in the grass with trees behind them .'
p1729
sS'3222055946_45f7293bb2.jpg'
p1730
S'Two men are playing basketball and one is trying to block the others shot .'
p1731
sS'3263395801_5e4cee2b9e.jpg'
p1732
S'A person riding a bike with blue wheels on a tree trunk at night .'
p1733
sS'170100272_d820db2199.jpg'
p1734
S'A young child in a blue shirt is standing on a slide .'
p1735
sS'1472882567_33dc14c8b6.jpg'
p1736
S'Two men stand on skis and look to a snowy mountain to the right .'
p1737
sS'3186073578_6e115f45f5.jpg'
p1738
S'A man in a brown coat is standing in a store holding a cup in front of a building .'
p1739
sS'461505235_590102a5bf.jpg'
p1740
S'A rock climber scales a mountain .'
p1741
sS'180506881_de0f59770f.jpg'
p1742
S'A man in a white shirt and sunglasses stands with a drink whilst standing in front of a window that has a cigarette in front of her .'
p1743
sS'2735558076_0d7bbc18fc.jpg'
p1744
S'A man in a wetsuit and hat is holding up a silver trophy .'
p1745
sS'2577972703_a22c5f2a87.jpg'
p1746
S'A little girl with a pink scarf on her head stands in a parking lot .'
p1747
sS'2933637854_984614e18b.jpg'
p1748
S'A football player wearing a red shirt walks with the ball .'
p1749
sS'3591458156_f1a9a33918.jpg'
p1750
S'A man wearing a cowboy hat and a backpack walks away from a cow with a lot of cars in the background .'
p1751
sS'1679617928_a73c1769be.jpg'
p1752
S'A man looks at his machine in the snow .'
p1753
sS'3251648670_9339943ba2.jpg'
p1754
S'A young girl and a girl on a red bench eating ice cream cone .'
p1755
sS'3694991841_141804da1f.jpg'
p1756
S'A woman with long hair is sitting on a picnic table in the street .'
p1757
sS'2943023421_e297f05e11.jpg'
p1758
S'An orange truck drives through the mud .'
p1759
sS'2581066814_179d28f306.jpg'
p1760
S'A man is riding his bicycle down the sidewalk .'
p1761
sS'1417031097_ab656bc4bd.jpg'
p1762
S'A person on a bike is midair , twisting his body around the handlebars , with graffiti behind him .'
p1763
sS'1425069308_488e5fcf9d.jpg'
p1764
S'A black dog jumps high in the air next to a black and brown dog .'
p1765
sS'3245912109_fdeef6b456.jpg'
p1766
S'A group of teenagers standing near a road with trees .'
p1767
sS'3217910740_d1d61c08ab.jpg'
p1768
S'A young girl playing the violin in a hall .'
p1769
sS'308487515_7852928f90.jpg'
p1770
S'A white swan is standing on a fallen tree trunk .'
p1771
sS'3642220260_3aa8a52670.jpg'
p1772
S'A black dog walking on a rocky shore near a building .'
p1773
sS'2170222061_e8bce4a32d.jpg'
p1774
S'A dog rolls in the grass .'
p1775
sS'754852108_72f80d421f.jpg'
p1776
S'A man and a woman laugh together by a white door .'
p1777
sS'2414397449_2ac3b78e0d.jpg'
p1778
S'A white dog is playing tug of war with a stick .'
p1779
sS'2909955251_4b326a46a7.jpg'
p1780
S'A person is riding in a kayak in the ocean .'
p1781
sS'3258874419_23fec1bdc1.jpg'
p1782
S'A black greyhound in white and green coming up on the rear of a white greyhound in yellow and black in a race .'
p1783
sS'3045613316_4e88862836.jpg'
p1784
S'A man and a woman are walking past benches that overlook the water .'
p1785
sS'3569406219_f37ebf7b92.jpg'
p1786
S'A woman wearing a white tie is walking up the sidewalk next to a building .'
p1787
sS'466956209_2ffcea3941.jpg'
p1788
S'A man climbing a cliff face .'
p1789
sS'488590040_35a3e96c89.jpg'
p1790
S'Two people in hats are standing in the sand .'
p1791
sS'309687244_4bdf3b591f.jpg'
p1792
S'Man dangling from rock as spectators watch'
p1793
sS'2431832075_00aa1a4457.jpg'
p1794
S'Two children play in a blue and yellow tunnel .'
p1795
sS'1547883892_e29b3db42e.jpg'
p1796
S'A man and a woman sitting on each side of a small metal table .'
p1797
sS'2660008870_b672a4c76a.jpg'
p1798
S'A young boy slides down a water slide into the swimming pool .'
p1799
sS'3256043809_47258e0b3e.jpg'
p1800
S'A black and white dog plays in the snow .'
p1801
sS'2358898017_24496b80e8.jpg'
p1802
S'A brown and white dog is running through an agility competition .'
p1803
sS'2544426580_317b1f1f73.jpg'
p1804
S'A baby in a life jacket sitting in a and yellow toy .'
p1805
sS'2162564553_96de62c7e6.jpg'
p1806
S'A woman is walking on a sidewalk by some melting snow .'
p1807
sS'2602085456_d1beebcb29.jpg'
p1808
S'A woman wearing black and red shirt looks back as she and she looks at the camera , while a girl in the background smiles .'
p1809
sS'363617160_6cb0c723be.jpg'
p1810
S'A young girl is riding a toy car while others pass behind him .'
p1811
sS'3339140382_2e49bc324a.jpg'
p1812
S'A man is on a snowboard above the water on a clear day .'
p1813
sS'3159995270_17334ccb5b.jpg'
p1814
S'Man on a snowboard sliding in a race .'
p1815
sS'2890113532_ab2003d74e.jpg'
p1816
S'a brown and black dog jumping in the air to get a toy .'
p1817
sS'429851331_b248ca01cd.jpg'
p1818
S'A dog is jumping over a log in the woods .'
p1819
sS'2901074943_041aba4607.jpg'
p1820
S'A boy in a blue scarf throws a white ball as another watches .'
p1821
sS'3290105461_7590f23371.jpg'
p1822
S'A boy in a helmet jumps a large bike in a wooded area .'
p1823
sS'3473264983_67917a931f.jpg'
p1824
S'A group of people on motorbikes .'
p1825
sS'2707873672_15e6b5d54b.jpg'
p1826
S'A young man in a blue shirt and blue jeans stands on a tree branch in a grassy field .'
p1827
sS'3696698390_989f1488e7.jpg'
p1828
S'Two people are riding a bike .'
p1829
sS'421322723_3470543368.jpg'
p1830
S'A man and a woman in a colorful shirt , holding hands and taking pictures .'
p1831
sS'3203908917_53e53c03d1.jpg'
p1832
S'A man in a man plays a guitar while speaking .'
p1833
sS'3558370311_5734a15890.jpg'
p1834
S'A person does a trick on a bike in the woods .'
p1835
sS'245895500_a4eb97af02.jpg'
p1836
S'A white bird stands on a field near some trees .'
p1837
sS'473220329_819a913bbb.jpg'
p1838
S'Three people are standing by a tree and one is walking away from the sky .'
p1839
sS'3384314832_dffc944152.jpg'
p1840
S'A dog is jumping over a blue and white tube at a dog show .'
p1841
sS'2910758605_73a3f5a5c2.jpg'
p1842
S'A man in a blue shirt is holding a woman as another female stands at the top of a busy sidewalk .'
p1843
sS'2073105823_6dacade004.jpg'
p1844
S'A man hangs from the top of a concrete in the woods .'
p1845
sS'197107117_4b438b1872.jpg'
p1846
S'A person in an orange helmet climbs up a rocky cliff of a snowy hill .'
p1847
sS'300314926_0b2e4b64f5.jpg'
p1848
S'A man surfing in the ocean .'
p1849
sS'751737218_b89839a311.jpg'
p1850
S'A man and two boys are posing for a photo .'
p1851
sS'3238951136_2a99f1a1a8.jpg'
p1852
S'The woman is climbing a large rock .'
p1853
sS'3191135894_2b4bdabb6d.jpg'
p1854
S'A group of people in green shirts and red vests is running down a road wearing yellow shirts .'
p1855
sS'3006093003_c211737232.jpg'
p1856
S'A man in a black shirt is standing with his head down and looking at the camera .'
p1857
sS'3301859683_2d5e4b40a3.jpg'
p1858
S'A man is skiing in the snow .'
p1859
sS'2682382530_f9f8fd1e89.jpg'
p1860
S'A man jumps high above their stomach .'
p1861
sS'544576742_283b65fa0d.jpg'
p1862
S'A young boy is rock climbing while suspended in a harness .'
p1863
sS'2984174290_a915748d77.jpg'
p1864
S'a young man wearing a grey shirt with a fishing pole in his hand'
p1865
sS'359837950_9e22ffe6c2.jpg'
p1866
S'The dog runs through the woods .'
p1867
sS'3353036763_4cbeba03b2.jpg'
p1868
S'A group of ice hockey players are being pulled on a crashing wagon .'
p1869
sS'3214885227_2be09e7cfb.jpg'
p1870
S'A man wading in a lake dips his long hair into the water and quickly throws his head back making a brief rainbow of water overhear .'
p1871
sS'3584561689_b6eb24dd70.jpg'
p1872
S'Two men are playing basketball and one is trying to push another one .'
p1873
sS'2049051050_20359a434a.jpg'
p1874
S'A woman in a white dress is holding a large camera while a woman in a brown coat stands behind a fence .'
p1875
sS'1765164972_92dac06fa9.jpg'
p1876
S'A man wears a feathered hat and black beads while holding a sign .'
p1877
sS'2283966256_70317e1759.jpg'
p1878
S'A brown dog is chewing on a smaller curly haired dog .'
p1879
sS'3503623999_bbd5dcfb18.jpg'
p1880
S'The woman is wearing a black vest , and red jacket .'
p1881
sS'2196316998_3b2d63f01f.jpg'
p1882
S'A man with a red hat is sitting near a statue of a man .'
p1883
sS'2594042571_2e4666507e.jpg'
p1884
S'A little girl is sitting on a bench and reading a book .'
p1885
sS'1461667284_041c8a2475.jpg'
p1886
S'A man is sitting in front of a stage while being carried by a group of people sitting at the top of a street .'
p1887
sS'3364026240_645d533fda.jpg'
p1888
S'A man skis on a snowy mountain .'
p1889
sS'2280525192_81911f2b00.jpg'
p1890
S'Two dogs are running through a field of grass .'
p1891
sS'2944952557_8484f0da8f.jpg'
p1892
S'A pitcher and catcher celebrate striking another baseball player out in a pro game .'
p1893
sS'3245460937_2710a82709.jpg'
p1894
S'A woman is playing baseball in a softball game .'
p1895
sS'3425851292_de92a072ee.jpg'
p1896
S'A tennis player with a tennis racket on his shirt is being pursued by a player in a black shirt .'
p1897
sS'3052196390_c59dd24ca8.jpg'
p1898
S'A little girl jumps from one rock to another in a stream .'
p1899
sS'261490838_2f3ac98b12.jpg'
p1900
S'A dog running on a field with a stick and ground'
p1901
sS'3363750526_efcedc47a9.jpg'
p1902
S'A fluffy black and white dog is running on the beach .'
p1903
sS'2924259848_effb4dcb82.jpg'
p1904
S'A motorcycle racer is producing sparks by leaning during a turn .'
p1905
sS'1352410176_af6b139734.jpg'
p1906
S'a young child running along the shore at a beach'
p1907
sS'2587818583_4aa8e7b174.jpg'
p1908
S'A group of children play in a large pool .'
p1909
sS'226607225_44d696db6b.jpg'
p1910
S'The white bird is flying above the ocean .'
p1911
sS'3578914491_36019ba703.jpg'
p1912
S'a brown dog is sniffing the ground whilst standing on its hind legs to bite another dog .'
p1913
sS'2384353160_f395e9a54b.jpg'
p1914
S'A man in a hat , blue shirt and gold chain with a cross .'
p1915
sS'1982852140_56425fa7a2.jpg'
p1916
S'A child is splashing along the shore of a large beach .'
p1917
sS'2902269566_419d9f1d8e.jpg'
p1918
S'A man is doing a jump on a bike in the air .'
p1919
sS'324208502_674488bcea.jpg'
p1920
S'a woman and a man are walking past a monitor with a man in a red jacket .'
p1921
sS'3375549004_beee810e60.jpg'
p1922
S'The man in the gray shirt has a blue beard .'
p1923
sS'3121521593_18f0ec14f7.jpg'
p1924
S'A man in a red shirt is posing for a picture outside of a building .'
p1925
sS'3320356356_1497e53f80.jpg'
p1926
S'Someone is climbing a large rock in front of a large tree .'
p1927
sS'2208310655_a3d83080c5.jpg'
p1928
S'Two men and a woman pose for a picture .'
p1929
sS'3651971126_309e6a5e22.jpg'
p1930
S'A black dog and a tan dog wrestle .'
p1931
sS'3234115903_f4dfc8fc75.jpg'
p1932
S'A basketball player wearing a white uniform is dribbling the ball on the court .'
p1933
sS'3647750811_395fbd397e.jpg'
p1934
S'A black dog and a white dog play with each other and a green ball .'
p1935
sS'3071676551_a65741e372.jpg'
p1936
S'A surfboarder prepares to catch a wave .'
p1937
sS'2900274587_f2cbca4c58.jpg'
p1938
S'A man is standing on the shore of the ocean posing like a bird .'
p1939
sS'3635577874_48ebaac734.jpg'
p1940
S'A bicyclist does maneuvers'
p1941
sS'3453259666_9ecaa8bb4b.jpg'
p1942
S'Two children are playing in a tire swing .'
p1943
sS'2176980976_7054c99621.jpg'
p1944
S'A man sits on a rock and looks to the right .'
p1945
sS'766099402_cdda6964f0.jpg'
p1946
S'Two men are on a yellow ride at the amusement park .'
p1947
sS'2698666984_13e17236ae.jpg'
p1948
S'A young man jumps in the air to catch a white ball .'
p1949
sS'2860872588_f2c7b30e1a.jpg'
p1950
S'A brown and white dog is chewing on a bone .'
p1951
sS'3364861247_d590fa170d.jpg'
p1952
S'A group of girls are riding on a roller coaster .'
p1953
sS'3354883962_170d19bfe4.jpg'
p1954
S'Two large dogs run in the snow .'
p1955
sS'3070011270_390e597783.jpg'
p1956
S'A black dog and a dog are playing in the water .'
p1957
sS'3521374954_37371b49a4.jpg'
p1958
S'A little boy in a blue shirt is lying on a blue tricycle with no shirt around .'
p1959
sS'1432179046_8e3d75cf81.jpg'
p1960
S'A man sits on a bench in the middle of a group of people sitting on a bench in a street park .'
p1961
sS'2830869109_c4e403eae6.jpg'
p1962
S'A woman in a white shirt is sitting on a rock and holding a small child on the beach .'
p1963
sS'909808296_23c427022d.jpg'
p1964
S'A white and brown dog is playing with a stick in the grass .'
p1965
sS'3119076670_64b5340530.jpg'
p1966
S'A man in dark clothing on a bicycle in midair near a stunt ramp with graffiti behind him .'
p1967
sS'1131800850_89c7ffd477.jpg'
p1968
S'The brown and white dog is in the water .'
p1969
sS'3624327440_bef4f33f32.jpg'
p1970
S'A man in a black wetsuit is surfing in the waves .'
p1971
sS'435827376_4384c3005a.jpg'
p1972
S'A group of people stand on a balcony .'
p1973
sS'391579205_c8373b5411.jpg'
p1974
S'a man in a black shirt is sitting on a park bench with a dog in front of him .'
p1975
sS'2084217208_7bd9bc85e5.jpg'
p1976
S'Man in a blue helmet riding a bicycle'
p1977
sS'3502993968_4ee36afb0e.jpg'
p1978
S'A man in blue and white is on a blue bike with other people around him .'
p1979
sS'872622575_ba1d3632cc.jpg'
p1980
S'A man is rock climbing on a natural rock .'
p1981
sS'317383917_d8bfa350b6.jpg'
p1982
S'Three dogs are in the snow , and one is wearing a winter coat .'
p1983
sS'3365783912_e12c3510d8.jpg'
p1984
S'A woman is eating ice cream with her hands over her head and talks on the phone .'
p1985
sS'3576259024_9c05b163aa.jpg'
p1986
S'A man is sitting on a bike in the middle of the woods .'
p1987
sS'2971431335_e192613db4.jpg'
p1988
S'A man jumps off a cliff into the water .'
p1989
sS'525863257_053333e612.jpg'
p1990
S'A child with a surfboard is walking on the shore of a lake .'
p1991
sS'2207244634_1db1a1890b.jpg'
p1992
S'A boy is on a brown bicycle , doing a wheelie .'
p1993
sS'263854883_0f320c1562.jpg'
p1994
S'A tan dog is carrying a very long stick in its mouth .'
p1995
sS'2525270674_4ab536e7ec.jpg'
p1996
S'A dog runs down a ramp with its mouth open .'
p1997
sS'3138399980_d6ab8b2272.jpg'
p1998
S'A woman standing in a park watching a person cheerleader on the sidewalk .'
p1999
sS'2543589122_ec3e55f434.jpg'
p2000
S'A black and white dog plays with a tennis ball on the beach .'
p2001
s.